(dp1
S'dir_items'
p2
(F1248581231.732506
I3600
(lp3
(V=Unsorted=
V=Unsorted=
(ltp4
a(VAerosmith
VAerosmith
(lp5
(VGreatest Hits
VAerosmith/Greatest Hits
(lp6
(VCD 1
VAerosmith/Greatest Hits/CD 1
(ltp7
a(VCD 2
VAerosmith/Greatest Hits/CD 2
(ltp8
atp9
atp10
a(VAndrew McMahon
VAndrew McMahon
(lp11
(VJack's Mannequin
VAndrew McMahon/Jack's Mannequin
(lp12
(V[2005] Everything in Transit
VAndrew McMahon/Jack's Mannequin/[2005] Everything in Transit
(ltp13
atp14
a(VSomething Corporate
VAndrew McMahon/Something Corporate
(lp15
(V[1999] Andrew McMahon's Solo CD
VAndrew McMahon/Something Corporate/[1999] Andrew McMahon's Solo CD
(ltp16
a(V[2000] Ready... Break
VAndrew McMahon/Something Corporate/[2000] Ready... Break
(ltp17
a(V[2001] Audioboxer
VAndrew McMahon/Something Corporate/[2001] Audioboxer
(ltp18
a(V[2001] Galaxy Sessions
VAndrew McMahon/Something Corporate/[2001] Galaxy Sessions
(ltp19
a(V[2003] North
VAndrew McMahon/Something Corporate/[2003] North
(ltp20
a(V[2003] Songs for Silent Movies
VAndrew McMahon/Something Corporate/[2003] Songs for Silent Movies
(ltp21
a(V[2004] Leaving Through the Window
VAndrew McMahon/Something Corporate/[2004] Leaving Through the Window
(ltp22
a(V[2004] Live at the Fillmore
VAndrew McMahon/Something Corporate/[2004] Live at the Fillmore
(ltp23
atp24
atp25
a(VAqualung
VAqualung
(lp26
(V[2004] Still Life
VAqualung/[2004] Still Life
(ltp27
a(V[2005] Strange And Beautiful
VAqualung/[2005] Strange And Beautiful
(ltp28
a(V[2007] Memory Man
VAqualung/[2007] Memory Man
(ltp29
a(V[2008] Words and Music
VAqualung/[2008] Words and Music
(ltp30
atp31
a(VBachman-Turner Overdrive
VBachman-Turner Overdrive
(lp32
(VGreatest Hits
VBachman-Turner Overdrive/Greatest Hits
(lp33
(VCD 1
VBachman-Turner Overdrive/Greatest Hits/CD 1
(ltp34
a(VCD 2
VBachman-Turner Overdrive/Greatest Hits/CD 2
(ltp35
atp36
atp37
a(VBackstreet Boys
VBackstreet Boys
(lp38
(VGreatest Hits
VBackstreet Boys/Greatest Hits
(ltp39
atp40
a(VBad Religion
VBad Religion
(lp41
(V[1996]  The Gray Race
VBad Religion/[1996]  The Gray Race
(ltp42
a(V[1996] The Gray Race
VBad Religion/[1996] The Gray Race
(ltp43
atp44
a(VBarenaked Ladies
VBarenaked Ladies
(lp45
(V[1992] Gordon
VBarenaked Ladies/[1992] Gordon
(ltp46
a(V[1994] Maybe You Should Drive
VBarenaked Ladies/[1994] Maybe You Should Drive
(ltp47
a(V[1996] Born On A Pirate Ship
VBarenaked Ladies/[1996] Born On A Pirate Ship
(ltp48
a(V[1996] Rock Spectacle
VBarenaked Ladies/[1996] Rock Spectacle
(ltp49
a(V[1998] Stunt
VBarenaked Ladies/[1998] Stunt
(ltp50
a(V[2000] Maroon
VBarenaked Ladies/[2000] Maroon
(ltp51
a(V[2001] All Their Greatest Hits 1991-2001
VBarenaked Ladies/[2001] All Their Greatest Hits 1991-2001
(ltp52
a(V[2002] The Brothers Creeggan - Sleepyhead
VBarenaked Ladies/[2002] The Brothers Creeggan - Sleepyhead
(ltp53
a(V[2003] Everything To Everyone
VBarenaked Ladies/[2003] Everything To Everyone
(ltp54
a(V[2004] Barenaked For The Holidays
VBarenaked Ladies/[2004] Barenaked For The Holidays
(ltp55
a(V[2005] The Vanity Project
VBarenaked Ladies/[2005] The Vanity Project
(ltp56
a(V[2006] All New Revue - Live at the Glenn Gould Theatre
VBarenaked Ladies/[2006] All New Revue - Live at the Glenn Gould Theatre
(ltp57
a(V[2006] Barenaked Ladies Are Me
VBarenaked Ladies/[2006] Barenaked Ladies Are Me
(lp58
(VCD 1
VBarenaked Ladies/[2006] Barenaked Ladies Are Me/CD 1
(ltp59
a(VCD 2
VBarenaked Ladies/[2006] Barenaked Ladies Are Me/CD 2
(ltp60
atp61
a(V[2007] Barenaked Ladies Are Men
VBarenaked Ladies/[2007] Barenaked Ladies Are Men
(ltp62
atp63
a(VBeach Boys
VBeach Boys
(lp64
(VGreatest Hits
VBeach Boys/Greatest Hits
(ltp65
atp66
a(VBeastie Boys
VBeastie Boys
(lp67
(V[1986] Licensed To Ill
VBeastie Boys/[1986] Licensed To Ill
(ltp68
a(V[1989] Paul's Boutique
VBeastie Boys/[1989] Paul's Boutique
(ltp69
a(V[1992] Check Your Head
VBeastie Boys/[1992] Check Your Head
(ltp70
a(V[1994] Ill Communication
VBeastie Boys/[1994] Ill Communication
(ltp71
a(V[1994] Some Old Bullshit
VBeastie Boys/[1994] Some Old Bullshit
(ltp72
a(V[1995] Aglio e Olio
VBeastie Boys/[1995] Aglio e Olio
(ltp73
a(V[1996] The In Sound From Way Out
VBeastie Boys/[1996] The In Sound From Way Out
(ltp74
a(V[1998] Hello Nasty
VBeastie Boys/[1998] Hello Nasty
(ltp75
a(V[2004] To the 5 Boroughs
VBeastie Boys/[2004] To the 5 Boroughs
(ltp76
atp77
a(VBeatles
VBeatles
(lp78
(V[1962] The Decca Tapes
VBeatles/[1962] The Decca Tapes
(ltp79
a(V[1963] Please Please Me
VBeatles/[1963] Please Please Me
(ltp80
a(V[1963] With the Beatles
VBeatles/[1963] With the Beatles
(ltp81
a(V[1964] A Hard Day's Night
VBeatles/[1964] A Hard Day's Night
(ltp82
a(V[1964] Beatles for Sale
VBeatles/[1964] Beatles for Sale
(ltp83
a(V[1965] Help
VBeatles/[1965] Help
(ltp84
a(V[1965] Rubber Soul
VBeatles/[1965] Rubber Soul
(ltp85
a(V[1966] Revolver
VBeatles/[1966] Revolver
(ltp86
a(V[1967] Magical Mystery Tour
VBeatles/[1967] Magical Mystery Tour
(ltp87
a(V[1967] Sgt. Pepper's Lonely Hearts Club Band
VBeatles/[1967] Sgt. Pepper's Lonely Hearts Club Band
(ltp88
a(V[1968] The White Album
VBeatles/[1968] The White Album
(lp89
(VCD 1
VBeatles/[1968] The White Album/CD 1
(ltp90
a(VCD 2
VBeatles/[1968] The White Album/CD 2
(ltp91
atp92
a(V[1969] Abbey Road
VBeatles/[1969] Abbey Road
(ltp93
a(V[1969] Yellow Submarine
VBeatles/[1969] Yellow Submarine
(ltp94
a(V[1970] Hey Jude
VBeatles/[1970] Hey Jude
(ltp95
a(V[1970] In The Beginning
VBeatles/[1970] In The Beginning
(ltp96
a(V[1970] Let It Be
VBeatles/[1970] Let It Be
(ltp97
a(V[1973] The Blue Album
VBeatles/[1973] The Blue Album
(lp98
(VCD 1
VBeatles/[1973] The Blue Album/CD 1
(ltp99
a(VCD 2
VBeatles/[1973] The Blue Album/CD 2
(ltp100
atp101
a(V[1973] The Red Album
VBeatles/[1973] The Red Album
(ltp102
a(V[1976] Rock n' Roll Music
VBeatles/[1976] Rock n' Roll Music
(ltp103
a(V[1977] Love Songs
VBeatles/[1977] Love Songs
(ltp104
a(V[1984] The Early Tapes
VBeatles/[1984] The Early Tapes
(ltp105
a(V[1988] Past Masters
VBeatles/[1988] Past Masters
(lp106
(VVolume 1
VBeatles/[1988] Past Masters/Volume 1
(ltp107
a(VVolume 2
VBeatles/[1988] Past Masters/Volume 2
(ltp108
atp109
a(V[1994] Live at the BBC
VBeatles/[1994] Live at the BBC
(lp110
(VCD 1
VBeatles/[1994] Live at the BBC/CD 1
(ltp111
a(VCD 2
VBeatles/[1994] Live at the BBC/CD 2
(ltp112
atp113
a(V[1995] Anthology 1
VBeatles/[1995] Anthology 1
(lp114
(VCD 1
VBeatles/[1995] Anthology 1/CD 1
(ltp115
a(VCD 2
VBeatles/[1995] Anthology 1/CD 2
(ltp116
atp117
a(V[1995] Free as a Bird
VBeatles/[1995] Free as a Bird
(ltp118
a(V[1996] Anthology 2
VBeatles/[1996] Anthology 2
(lp119
(VCD 1
VBeatles/[1996] Anthology 2/CD 1
(ltp120
a(VCD 2
VBeatles/[1996] Anthology 2/CD 2
(ltp121
atp122
a(V[1996] Anthology 3
VBeatles/[1996] Anthology 3
(lp123
(VCD 1
VBeatles/[1996] Anthology 3/CD 1
(ltp124
a(VCD 2
VBeatles/[1996] Anthology 3/CD 2
(ltp125
atp126
a(V[2000] 1
VBeatles/[2000] 1
(ltp127
a(V[2006] Love
VBeatles/[2006] Love
(ltp128
a(V[2007] Across The Universe
VBeatles/[2007] Across The Universe
(lp129
(VCD 1
VBeatles/[2007] Across The Universe/CD 1
(ltp130
a(VCD 2
VBeatles/[2007] Across The Universe/CD 2
(ltp131
atp132
atp133
a(VBest Smooth Jazz Ever
VBest Smooth Jazz Ever
(ltp134
a(VBilly Joel
VBilly Joel
(lp135
(VGreatest Hits
VBilly Joel/Greatest Hits
(ltp136
atp137
a(VBlack Eyed Peas
VBlack Eyed Peas
(lp138
(VFergie
VBlack Eyed Peas/Fergie
(lp139
(V[2006] The Dutchess
VBlack Eyed Peas/Fergie/[2006] The Dutchess
(ltp140
a(V[2008] This Is My Paradise
VBlack Eyed Peas/Fergie/[2008] This Is My Paradise
(lp141
(VCD 1
VBlack Eyed Peas/Fergie/[2008] This Is My Paradise/CD 1
(ltp142
a(VCD 2
VBlack Eyed Peas/Fergie/[2008] This Is My Paradise/CD 2
(ltp143
atp144
atp145
a(V[1998] Behind The Front
VBlack Eyed Peas/[1998] Behind The Front
(ltp146
a(V[2000] Bridging The Gap
VBlack Eyed Peas/[2000] Bridging The Gap
(ltp147
a(V[2003] Elephunk
VBlack Eyed Peas/[2003] Elephunk
(ltp148
a(V[2005] Monkey Business
VBlack Eyed Peas/[2005] Monkey Business
(ltp149
a(V[2009] The E.N.D
VBlack Eyed Peas/[2009] The E.N.D
(ltp150
a(Vwill.i.am
VBlack Eyed Peas/will.i.am
(lp151
(V[2001] Lost Change
VBlack Eyed Peas/will.i.am/[2001] Lost Change
(ltp152
a(V[2007] Songs About Girls
VBlack Eyed Peas/will.i.am/[2007] Songs About Girls
(ltp153
a(Vwill.i.am - Lost Change [V0]
VBlack Eyed Peas/will.i.am/will.i.am - Lost Change [V0]
(ltp154
atp155
atp156
a(VBlood, Sweat & Tears
VBlood, Sweat & Tears
(lp157
(VGreatest Hits
VBlood, Sweat & Tears/Greatest Hits
(ltp158
atp159
a(VBoston
VBoston
(lp160
(VGreatest Hits
VBoston/Greatest Hits
(ltp161
atp162
a(VBoyce Avenue
VBoyce Avenue
(lp163
(V[2008] Acoustic Sessions, Vol. 1
VBoyce Avenue/[2008] Acoustic Sessions, Vol. 1
(ltp164
a(V[2008] Acoustic Sessions, Vol. 2
VBoyce Avenue/[2008] Acoustic Sessions, Vol. 2
(ltp165
a(V[2008] Acoustic Sessions, Vol. 3
VBoyce Avenue/[2008] Acoustic Sessions, Vol. 3
(ltp166
a(V[2008] Acoustic Sessions, Vol. 4
VBoyce Avenue/[2008] Acoustic Sessions, Vol. 4
(ltp167
a(V[2008] All You're Meant To Be
VBoyce Avenue/[2008] All You're Meant To Be
(ltp168
atp169
a(VBoys Like Girls
VBoys Like Girls
(lp170
(V[2006] Boys Like Girls
VBoys Like Girls/[2006] Boys Like Girls
(ltp171
atp172
a(VBrak
VBrak
(lp173
(V[2000] Brak Presents The Brak Album Starring Brak
VBrak/[2000] Brak Presents The Brak Album Starring Brak
(ltp174
atp175
a(VBrian Eno
VBrian Eno
(lp176
(VBrian Eno - Apollo Atmospheres & Soundtracks - 1989 - VBRmp3
VBrian Eno/Brian Eno - Apollo Atmospheres & Soundtracks - 1989 - VBRmp3
(ltp177
a(V[1989] Apollo Atmospheres & Soundtracks
VBrian Eno/[1989] Apollo Atmospheres & Soundtracks
(ltp178
atp179
a(VBritney Spears
VBritney Spears
(lp180
(V[2008] Circus
VBritney Spears/[2008] Circus
(ltp181
atp182
a(VCake
VCake
(lp183
(V[1994] Motorcade of Generosity
VCake/[1994] Motorcade of Generosity
(ltp184
a(V[1996] Fashion Nugget
VCake/[1996] Fashion Nugget
(ltp185
a(V[1998] Prolonging the Magic
VCake/[1998] Prolonging the Magic
(ltp186
a(V[2001] Comfort Eagle
VCake/[2001] Comfort Eagle
(ltp187
a(V[2004] Pressure Chief
VCake/[2004] Pressure Chief
(ltp188
atp189
a(VCarrie Underwood
VCarrie Underwood
(lp190
(V[2005] Some Hearts
VCarrie Underwood/[2005] Some Hearts
(ltp191
atp192
a(VChristina Aguilera
VChristina Aguilera
(lp193
(V[2002] Stripped
VChristina Aguilera/[2002] Stripped
(ltp194
a(V[2006] Back to Basics
VChristina Aguilera/[2006] Back to Basics
(ltp195
atp196
a(VColdplay
VColdplay
(lp197
(VMiscellaneous
VColdplay/Miscellaneous
(ltp198
a(V[2000] Parachutes
VColdplay/[2000] Parachutes
(ltp199
a(V[2002] A Rush Of Blood To The Head
VColdplay/[2002] A Rush Of Blood To The Head
(ltp200
a(V[2005] X&Y
VColdplay/[2005] X&Y
(ltp201
a(V[2008] Viva La Vida or Death and All His Friends
VColdplay/[2008] Viva La Vida or Death and All His Friends
(ltp202
atp203
a(VCounting Crows
VCounting Crows
(lp204
(V[1993] August And Everything After
VCounting Crows/[1993] August And Everything After
(ltp205
a(V[1996] Recovering The Satellites
VCounting Crows/[1996] Recovering The Satellites
(ltp206
a(V[1999] This Desert Life
VCounting Crows/[1999] This Desert Life
(ltp207
a(V[2002] Hard Candy
VCounting Crows/[2002] Hard Candy
(ltp208
a(V[2003] Films About Ghosts
VCounting Crows/[2003] Films About Ghosts
(ltp209
atp210
a(VCream
VCream
(lp211
(VGreatest Hits
VCream/Greatest Hits
(ltp212
atp213
a(VCreedence Clearwater Revival
VCreedence Clearwater Revival
(lp214
(VGreatest Hits
VCreedence Clearwater Revival/Greatest Hits
(ltp215
atp216
a(VDaft Punk
VDaft Punk
(lp217
(V[1997] Homework
VDaft Punk/[1997] Homework
(ltp218
a(V[2001] Discovery
VDaft Punk/[2001] Discovery
(ltp219
a(V[2004] Daft Club
VDaft Punk/[2004] Daft Club
(ltp220
a(V[2005] Human After All
VDaft Punk/[2005] Human After All
(ltp221
a(V[2007] Alive 2007
VDaft Punk/[2007] Alive 2007
(ltp222
atp223
a(VDavid Bowie
VDavid Bowie
(lp224
(VGreatest Hits
VDavid Bowie/Greatest Hits
(lp225
(VCD 1
VDavid Bowie/Greatest Hits/CD 1
(ltp226
a(VCD 2
VDavid Bowie/Greatest Hits/CD 2
(ltp227
atp228
atp229
a(VDavid Lanz
VDavid Lanz
(lp230
(VGreatest Hits
VDavid Lanz/Greatest Hits
(lp231
(VCD 1
VDavid Lanz/Greatest Hits/CD 1
(ltp232
a(VCD 2
VDavid Lanz/Greatest Hits/CD 2
(ltp233
atp234
atp235
a(VDeep Purple
VDeep Purple
(lp236
(V[1969] Deep Purple
VDeep Purple/[1969] Deep Purple
(ltp237
atp238
a(VDisney
VDisney
(lp239
(VDriving With Disney
VDisney/Driving With Disney
(lp240
(VCD 1
VDisney/Driving With Disney/CD 1
(ltp241
a(VCD 2
VDisney/Driving With Disney/CD 2
(ltp242
a(VCD 3
VDisney/Driving With Disney/CD 3
(ltp243
atp244
atp245
a(VDispatch
VDispatch
(lp246
(V[1996] Silent Steeples
VDispatch/[1996] Silent Steeples
(ltp247
a(V[2000] Bang Bang
VDispatch/[2000] Bang Bang
(ltp248
a(V[2000] Four Day Trials
VDispatch/[2000] Four Day Trials
(ltp249
a(V[2001] Gut the Van
VDispatch/[2001] Gut the Van
(lp250
(VCD 1 (Peg)
VDispatch/[2001] Gut the Van/CD 1 (Peg)
(ltp251
a(VCD 2 (Wimpy)
VDispatch/[2001] Gut the Van/CD 2 (Wimpy)
(ltp252
atp253
a(V[2002] Under the Radar
VDispatch/[2002] Under the Radar
(ltp254
a(V[2004] All Points Bulletin
VDispatch/[2004] All Points Bulletin
(lp255
(VCD 1 (Somerville)
VDispatch/[2004] All Points Bulletin/CD 1 (Somerville)
(ltp256
a(VCD 2 (Hatch Shell)
VDispatch/[2004] All Points Bulletin/CD 2 (Hatch Shell)
(ltp257
atp258
atp259
a(VDr. Demento
VDr. Demento
(ltp260
a(VDynamics
VDynamics
(lp261
(V[2007] Crescendo
VDynamics/[2007] Crescendo
(ltp262
a(V[2008] Love Games
VDynamics/[2008] Love Games
(ltp263
atp264
a(VEarth Wind and Fire
VEarth Wind and Fire
(lp265
(VGreatest Hits
VEarth Wind and Fire/Greatest Hits
(ltp266
atp267
a(VEdwin McCain
VEdwin McCain
(lp268
(VMiscellaneous
VEdwin McCain/Miscellaneous
(ltp269
a(V[1995] Honor Among Thieves
VEdwin McCain/[1995] Honor Among Thieves
(ltp270
a(V[1997] Misguided Roses
VEdwin McCain/[1997] Misguided Roses
(ltp271
a(V[2000] The Family Man OST
VEdwin McCain/[2000] The Family Man OST
(ltp272
a(V[2001] Far from Over
VEdwin McCain/[2001] Far from Over
(ltp273
a(V[2003] The Austin Sessions
VEdwin McCain/[2003] The Austin Sessions
(ltp274
a(V[2004] Scream And Whisper
VEdwin McCain/[2004] Scream And Whisper
(ltp275
a(V[2004] Tinsel & Tap Shoes
VEdwin McCain/[2004] Tinsel & Tap Shoes
(ltp276
a(V[2006] Lost in America
VEdwin McCain/[2006] Lost in America
(ltp277
atp278
a(VElectric Light Orchestra
VElectric Light Orchestra
(lp279
(VGreatest Hits
VElectric Light Orchestra/Greatest Hits
(ltp280
atp281
a(VElliott Smith
VElliott Smith
(lp282
(V[1994] Roman Candle
VElliott Smith/[1994] Roman Candle
(ltp283
a(V[1995] Elliott Smith
VElliott Smith/[1995] Elliott Smith
(ltp284
a(V[1997] EitherOr
VElliott Smith/[1997] EitherOr
(ltp285
a(V[1998] XO
VElliott Smith/[1998] XO
(ltp286
a(V[2000] Figure 8
VElliott Smith/[2000] Figure 8
(ltp287
a(V[2004] From a Basement On a Hill
VElliott Smith/[2004] From a Basement On a Hill
(ltp288
atp289
a(VElton John
VElton John
(lp290
(V[1969] Empty Sky
VElton John/[1969] Empty Sky
(ltp291
a(V[1970] Elton John
VElton John/[1970] Elton John
(ltp292
a(V[1970] Tumbleweed Connection
VElton John/[1970] Tumbleweed Connection
(ltp293
a(V[1971] 17-11-70 (live)
VElton John/[1971] 17-11-70 (live)
(ltp294
a(V[1971] Friends (soundtrack)
VElton John/[1971] Friends (soundtrack)
(ltp295
a(V[1971] Madman Across The Water
VElton John/[1971] Madman Across The Water
(ltp296
a(V[1972] Honky Chateau
VElton John/[1972] Honky Chateau
(ltp297
a(V[1973] Don't Shoot Me I'm Only the Piano Player
VElton John/[1973] Don't Shoot Me I'm Only the Piano Player
(ltp298
a(V[1973] Goodbye Yellow Brick Road
VElton John/[1973] Goodbye Yellow Brick Road
(ltp299
a(V[1974] Caribou
VElton John/[1974] Caribou
(ltp300
a(V[1975] Captain Fantastic and the Brown Dirt Cowboy
VElton John/[1975] Captain Fantastic and the Brown Dirt Cowboy
(ltp301
a(V[1975] Rock Of The Westies
VElton John/[1975] Rock Of The Westies
(ltp302
a(V[1976] Blue Moves
VElton John/[1976] Blue Moves
(lp303
(VCD 1
VElton John/[1976] Blue Moves/CD 1
(ltp304
a(VCD 2
VElton John/[1976] Blue Moves/CD 2
(ltp305
atp306
a(V[1978] A Single Man
VElton John/[1978] A Single Man
(ltp307
a(V[1979] Victim Of Love
VElton John/[1979] Victim Of Love
(ltp308
a(V[1980] 21 at 33
VElton John/[1980] 21 at 33
(ltp309
a(V[1981] The Fox
VElton John/[1981] The Fox
(ltp310
a(V[1982] Jump Up!
VElton John/[1982] Jump Up!
(ltp311
a(V[1983] Too Low For Zero
VElton John/[1983] Too Low For Zero
(ltp312
a(V[1984] Breaking Hearts
VElton John/[1984] Breaking Hearts
(ltp313
a(V[1985] Ice on Fire
VElton John/[1985] Ice on Fire
(ltp314
a(V[1986] Leather Jackets
VElton John/[1986] Leather Jackets
(ltp315
a(V[1987]- Live in Australia with the Melbourne Symphony Orchestra (live)
VElton John/[1987]- Live in Australia with the Melbourne Symphony Orchestra (live)
(ltp316
a(V[1988] Reg Strikes Back
VElton John/[1988] Reg Strikes Back
(ltp317
a(V[1989] Sleeping with the Past
VElton John/[1989] Sleeping with the Past
(ltp318
a(V[1991] Two Rooms - Celebrating the Songs of Elton John & Bernie Taupin
VElton John/[1991] Two Rooms - Celebrating the Songs of Elton John & Bernie Taupin
(ltp319
a(V[1992] The One
VElton John/[1992] The One
(ltp320
a(V[1993] Duets
VElton John/[1993] Duets
(ltp321
a(V[1994] Lion King (soundtrack)
VElton John/[1994] Lion King (soundtrack)
(ltp322
a(V[1994] Reg Dwight's Piano Goes Pop
VElton John/[1994] Reg Dwight's Piano Goes Pop
(ltp323
a(V[1995] Made in England
VElton John/[1995] Made in England
(ltp324
a(V[1997] The Big Picture
VElton John/[1997] The Big Picture
(ltp325
a(V[1999] Elton John and Tim Rice's Aida
VElton John/[1999] Elton John and Tim Rice's Aida
(ltp326
a(V[1999] The Muse (soundtrack)
VElton John/[1999] The Muse (soundtrack)
(ltp327
a(V[2000] One Night Only - The Greatest Hits (live)
VElton John/[2000] One Night Only - The Greatest Hits (live)
(ltp328
a(V[2000] Road To Eldorado
VElton John/[2000] Road To Eldorado
(ltp329
a(V[2001] Songs from the West Coast
VElton John/[2001] Songs from the West Coast
(ltp330
a(V[2004] Peachtree Road
VElton John/[2004] Peachtree Road
(ltp331
a(V[2005] Captain Fantastic and the Brown Dirt Cowboy (live)
VElton John/[2005] Captain Fantastic and the Brown Dirt Cowboy (live)
(ltp332
a(V[2006] The Captain & The Kid
VElton John/[2006] The Captain & The Kid
(ltp333
atp334
a(VEnya
VEnya
(lp335
(VGreatest Hits
VEnya/Greatest Hits
(ltp336
atp337
a(VEverclear
VEverclear
(lp338
(VGreatest Hits
VEverclear/Greatest Hits
(ltp339
atp340
a(VFall Out Boy
VFall Out Boy
(lp341
(V[2003] Evening Out with Your Girlfriend
VFall Out Boy/[2003] Evening Out with Your Girlfriend
(ltp342
a(V[2003] Take This To Your Grave
VFall Out Boy/[2003] Take This To Your Grave
(ltp343
a(V[2005] From Under The Cork Tree
VFall Out Boy/[2005] From Under The Cork Tree
(ltp344
a(V[2007] Infinity On High
VFall Out Boy/[2007] Infinity On High
(ltp345
atp346
a(VFatboy Slim
VFatboy Slim
(lp347
(VGreatest Hits
VFatboy Slim/Greatest Hits
(ltp348
atp349
a(VFinger Eleven
VFinger Eleven
(lp350
(V[2007] Them Vs. You Vs. Me
VFinger Eleven/[2007] Them Vs. You Vs. Me
(ltp351
atp352
a(VFive for Fighting
VFive for Fighting
(lp353
(V[2001] America Town
VFive for Fighting/[2001] America Town
(ltp354
a(V[2004] The Battle For Everything
VFive for Fighting/[2004] The Battle For Everything
(ltp355
a(V[2006] Two Lights
VFive for Fighting/[2006] Two Lights
(ltp356
atp357
a(VFleet Foxes
VFleet Foxes
(lp358
(V[2008] Fleet Foxes
VFleet Foxes/[2008] Fleet Foxes
(ltp359
atp360
a(VFleetwood Mac
VFleetwood Mac
(lp361
(VGreatest Hits
VFleetwood Mac/Greatest Hits
(ltp362
atp363
a(VGabe Dixon Band
VGabe Dixon Band
(lp364
(V[1999] More Than It Would Seem
VGabe Dixon Band/[1999] More Than It Would Seem
(ltp365
a(V[2004] On A Rolling Ball
VGabe Dixon Band/[2004] On A Rolling Ball
(ltp366
a(V[2005] Live at World Cafe
VGabe Dixon Band/[2005] Live at World Cafe
(ltp367
a(V[2008] The Gabe Dixon Band
VGabe Dixon Band/[2008] The Gabe Dixon Band
(ltp368
atp369
a(VGavin DeGraw
VGavin DeGraw
(lp370
(V[2003] Chariot
VGavin DeGraw/[2003] Chariot
(lp371
(VCD 1
VGavin DeGraw/[2003] Chariot/CD 1
(ltp372
a(VCD 2 (Stripped)
VGavin DeGraw/[2003] Chariot/CD 2 (Stripped)
(ltp373
atp374
a(V[2008] Gavin DeGraw
VGavin DeGraw/[2008] Gavin DeGraw
(lp375
(VINFO 2Lions-Team
VGavin DeGraw/[2008] Gavin DeGraw/INFO 2Lions-Team
(ltp376
a(VMP3
VGavin DeGraw/[2008] Gavin DeGraw/MP3
(ltp377
a(Vcover, etc
VGavin DeGraw/[2008] Gavin DeGraw/cover, etc
(ltp378
atp379
atp380
a(VGenesis
VGenesis
(lp381
(VPeter Gabriel
VGenesis/Peter Gabriel
(lp382
(VMiscellaneous
VGenesis/Peter Gabriel/Miscellaneous
(ltp383
a(V[1984] FAF INT
VGenesis/Peter Gabriel/[1984] FAF INT
(ltp384
a(V[1984] So
VGenesis/Peter Gabriel/[1984] So
(ltp385
a(V[1990] Shaking the Tree
VGenesis/Peter Gabriel/[1990] Shaking the Tree
(ltp386
a(V[1992] FAM
VGenesis/Peter Gabriel/[1992] FAM
(ltp387
a(V[1992] Revisited
VGenesis/Peter Gabriel/[1992] Revisited
(ltp388
a(V[1992] Us
VGenesis/Peter Gabriel/[1992] Us
(ltp389
a(V[1994] Secret World Live
VGenesis/Peter Gabriel/[1994] Secret World Live
(lp390
(VDisc 1
VGenesis/Peter Gabriel/[1994] Secret World Live/Disc 1
(ltp391
a(VDisc 2
VGenesis/Peter Gabriel/[1994] Secret World Live/Disc 2
(ltp392
atp393
a(V[2000] OVO
VGenesis/Peter Gabriel/[2000] OVO
(ltp394
a(V[2001] Mixed Tracks
VGenesis/Peter Gabriel/[2001] Mixed Tracks
(lp395
(VDisc 1
VGenesis/Peter Gabriel/[2001] Mixed Tracks/Disc 1
(ltp396
a(VDisc 2
VGenesis/Peter Gabriel/[2001] Mixed Tracks/Disc 2
(ltp397
atp398
a(V[2001] Plays Live
VGenesis/Peter Gabriel/[2001] Plays Live
(lp399
(VDisc 1
VGenesis/Peter Gabriel/[2001] Plays Live/Disc 1
(ltp400
a(VDisc 2
VGenesis/Peter Gabriel/[2001] Plays Live/Disc 2
(ltp401
atp402
a(V[2001] Us (Remastered)
VGenesis/Peter Gabriel/[2001] Us (Remastered)
(ltp403
a(V[2002] I - Car
VGenesis/Peter Gabriel/[2002] I - Car
(ltp404
a(V[2002] II - Scratch
VGenesis/Peter Gabriel/[2002] II - Scratch
(ltp405
a(V[2002] III - Melt
VGenesis/Peter Gabriel/[2002] III - Melt
(ltp406
a(V[2002] Long Walk Home
VGenesis/Peter Gabriel/[2002] Long Walk Home
(ltp407
a(V[2002] Passion (Remastered)
VGenesis/Peter Gabriel/[2002] Passion (Remastered)
(ltp408
a(V[2002] Plays Live (Remastered)
VGenesis/Peter Gabriel/[2002] Plays Live (Remastered)
(ltp409
a(V[2002] Security (Remastered)
VGenesis/Peter Gabriel/[2002] Security (Remastered)
(ltp410
a(V[2002] Up
VGenesis/Peter Gabriel/[2002] Up
(ltp411
a(V[2003] Hit
VGenesis/Peter Gabriel/[2003] Hit
(ltp412
a(V[2003] So This Is Hit
VGenesis/Peter Gabriel/[2003] So This Is Hit
(lp413
(VGabriel, Peter- Hit CD1
VGenesis/Peter Gabriel/[2003] So This Is Hit/Gabriel, Peter- Hit CD1
(ltp414
a(VGabriel, Peter- Hit CD2
VGenesis/Peter Gabriel/[2003] So This Is Hit/Gabriel, Peter- Hit CD2
(ltp415
atp416
a(V[2003] So this is Hit
VGenesis/Peter Gabriel/[2003] So this is Hit
(lp417
(VCD 1
VGenesis/Peter Gabriel/[2003] So this is Hit/CD 1
(ltp418
a(VCD 2
VGenesis/Peter Gabriel/[2003] So this is Hit/CD 2
(ltp419
atp420
a(V[2004] The Alternative Mixes
VGenesis/Peter Gabriel/[2004] The Alternative Mixes
(ltp421
atp422
a(VPhil Collins
VGenesis/Phil Collins
(lp423
(VPictures
VGenesis/Phil Collins/Pictures
(ltp424
a(V[1981] Face Value
VGenesis/Phil Collins/[1981] Face Value
(ltp425
a(V[1982] Hello, I Must Be Going!
VGenesis/Phil Collins/[1982] Hello, I Must Be Going!
(ltp426
a(V[1985] Easy Lover
VGenesis/Phil Collins/[1985] Easy Lover
(ltp427
a(V[1985] No Jacket Required
VGenesis/Phil Collins/[1985] No Jacket Required
(ltp428
a(V[1987] 12''ers
VGenesis/Phil Collins/[1987] 12''ers
(ltp429
a(V[1989] ... But Seriously
VGenesis/Phil Collins/[1989] ... But Seriously
(ltp430
a(V[1990] Serious Hits ... Live!
VGenesis/Phil Collins/[1990] Serious Hits ... Live!
(ltp431
a(V[1993] Both Sides
VGenesis/Phil Collins/[1993] Both Sides
(ltp432
a(V[1996] Dance Into The Light
VGenesis/Phil Collins/[1996] Dance Into The Light
(ltp433
a(V[1997] Live And Loose In Paris
VGenesis/Phil Collins/[1997] Live And Loose In Paris
(ltp434
a(V[1998] ... Hits
VGenesis/Phil Collins/[1998] ... Hits
(ltp435
a(V[1998] OST Tarzan
VGenesis/Phil Collins/[1998] OST Tarzan
(ltp436
a(V[1999] A Hot Night In Paris (Live)
VGenesis/Phil Collins/[1999] A Hot Night In Paris (Live)
(ltp437
a(V[2002] Testify
VGenesis/Phil Collins/[2002] Testify
(ltp438
a(V[2004] Love Songs. A Compilation... Old & New
VGenesis/Phil Collins/[2004] Love Songs. A Compilation... Old & New
(ltp439
a(V[2004] OST Brother Bear
VGenesis/Phil Collins/[2004] OST Brother Bear
(ltp440
a(V[2004] The Platinum Collection (First 3 LPs)
VGenesis/Phil Collins/[2004] The Platinum Collection (First 3 LPs)
(ltp441
atp442
a(V[1969] From Genesis To Revelation
VGenesis/[1969] From Genesis To Revelation
(ltp443
a(V[1970] Trespass
VGenesis/[1970] Trespass
(ltp444
a(V[1971] Nursery Cryme
VGenesis/[1971] Nursery Cryme
(ltp445
a(V[1972] Foxtrot
VGenesis/[1972] Foxtrot
(ltp446
a(V[1973] Live
VGenesis/[1973] Live
(ltp447
a(V[1973] Selling England by the Pound
VGenesis/[1973] Selling England by the Pound
(ltp448
a(V[1974] The Lamb Lies Down On Broadway
VGenesis/[1974] The Lamb Lies Down On Broadway
(lp449
(VLamp_Lies_Down_CD1
VGenesis/[1974] The Lamb Lies Down On Broadway/Lamp_Lies_Down_CD1
(ltp450
a(VLamp_Lies_Down_CD2
VGenesis/[1974] The Lamb Lies Down On Broadway/Lamp_Lies_Down_CD2
(ltp451
atp452
a(V[1976] A Trick Of The Tail
VGenesis/[1976] A Trick Of The Tail
(ltp453
a(V[1976] Wind & Wuthering
VGenesis/[1976] Wind & Wuthering
(ltp454
a(V[1977] Seconds Out - Disk 1
VGenesis/[1977] Seconds Out - Disk 1
(ltp455
a(V[1977] Seconds Out - Disk 2
VGenesis/[1977] Seconds Out - Disk 2
(ltp456
a(V[1978] And Then There Were Three
VGenesis/[1978] And Then There Were Three
(ltp457
a(V[1980] Duke
VGenesis/[1980] Duke
(ltp458
a(V[1981] Abacab
VGenesis/[1981] Abacab
(ltp459
a(V[1982] Three Sides Live
VGenesis/[1982] Three Sides Live
(lp460
(VDisc 1
VGenesis/[1982] Three Sides Live/Disc 1
(ltp461
a(VDisc 2
VGenesis/[1982] Three Sides Live/Disc 2
(ltp462
atp463
a(V[1983] Genesis
VGenesis/[1983] Genesis
(ltp464
a(V[1986] Invisible Touch
VGenesis/[1986] Invisible Touch
(ltp465
a(V[1991] Turn It On Again Best Of 81-83
VGenesis/[1991] Turn It On Again Best Of 81-83
(ltp466
a(V[1991] We Can't Dance
VGenesis/[1991] We Can't Dance
(ltp467
a(V[1997] Calling All Stations
VGenesis/[1997] Calling All Stations
(ltp468
atp469
a(VGoo Goo Dolls
VGoo Goo Dolls
(lp470
(VMiscellaneous
VGoo Goo Dolls/Miscellaneous
(ltp471
a(V[1993] Superstar Car Wash
VGoo Goo Dolls/[1993] Superstar Car Wash
(ltp472
a(V[1995] A Boy Named Goo
VGoo Goo Dolls/[1995] A Boy Named Goo
(ltp473
a(V[1998] Dizzy Up the Girl
VGoo Goo Dolls/[1998] Dizzy Up the Girl
(ltp474
a(V[2001] Ego, Opinion, Art & Commerce
VGoo Goo Dolls/[2001] Ego, Opinion, Art & Commerce
(ltp475
a(V[2002] Gutterflower
VGoo Goo Dolls/[2002] Gutterflower
(ltp476
atp477
a(VGrand Funk Railroad
VGrand Funk Railroad
(lp478
(VGreatest Hits
VGrand Funk Railroad/Greatest Hits
(ltp479
atp480
a(VGreen Day
VGreen Day
(lp481
(VFoxboro Hot Tubs
VGreen Day/Foxboro Hot Tubs
(lp482
(V[2008] Stop, Drop and Roll!!!
VGreen Day/Foxboro Hot Tubs/[2008] Stop, Drop and Roll!!!
(ltp483
atp484
a(V[1990] 1039 Smoothed Out Slappy Hours
VGreen Day/[1990] 1039 Smoothed Out Slappy Hours
(ltp485
a(V[1991] Kerplunk
VGreen Day/[1991] Kerplunk
(ltp486
a(V[1994] Dookie
VGreen Day/[1994] Dookie
(ltp487
a(V[1994] Insomniac
VGreen Day/[1994] Insomniac
(ltp488
a(V[1997] Nimrod
VGreen Day/[1997] Nimrod
(ltp489
a(V[1997] Warning
VGreen Day/[1997] Warning
(ltp490
a(V[2001] International Superhits
VGreen Day/[2001] International Superhits
(ltp491
a(V[2002] Shenanigans
VGreen Day/[2002] Shenanigans
(ltp492
a(V[2004] American Idiot
VGreen Day/[2004] American Idiot
(ltp493
a(V[2009] 21st Century Breakdown
VGreen Day/[2009] 21st Century Breakdown
(ltp494
atp495
a(VGuster
VGuster
(lp496
(V[1995] Parachute
VGuster/[1995] Parachute
(ltp497
a(V[1997] Goldfly
VGuster/[1997] Goldfly
(ltp498
a(V[2001] Lost and Gone Forever
VGuster/[2001] Lost and Gone Forever
(ltp499
a(V[2003] Keep It Together
VGuster/[2003] Keep It Together
(ltp500
a(V[2004] Guster On Ice
VGuster/[2004] Guster On Ice
(ltp501
a(V[2008] Ganging Up On The Sun
VGuster/[2008] Ganging Up On The Sun
(ltp502
atp503
a(VHarry and the Potters
VHarry and the Potters
(ltp504
a(VHello Madness
VHello Madness
(lp505
(V[2008] Light After Life And Dusk
VHello Madness/[2008] Light After Life And Dusk
(ltp506
atp507
a(VHellogoodbye
VHellogoodbye
(lp508
(V[2008] Zombies! Aliens! Vampires! Dinosaurs! And More!
VHellogoodbye/[2008] Zombies! Aliens! Vampires! Dinosaurs! And More!
(ltp509
atp510
a(VHootie & The Blowfish
VHootie & The Blowfish
(lp511
(V[1994] Cracked Rear View
VHootie & The Blowfish/[1994] Cracked Rear View
(ltp512
atp513
a(VHuey Lewis And The News
VHuey Lewis And The News
(lp514
(VGreatest Hits
VHuey Lewis And The News/Greatest Hits
(ltp515
atp516
a(VHumble Pie
VHumble Pie
(lp517
(V[1971] Rock On
VHumble Pie/[1971] Rock On
(ltp518
atp519
a(VImogen Heap
VImogen Heap
(lp520
(VFrou Frou
VImogen Heap/Frou Frou
(lp521
(V[2002] Details
VImogen Heap/Frou Frou/[2002] Details
(ltp522
atp523
a(VSolo Work
VImogen Heap/Solo Work
(lp524
(VMiscellaneous
VImogen Heap/Solo Work/Miscellaneous
(ltp525
a(V[1998] i-Megaphone
VImogen Heap/Solo Work/[1998] i-Megaphone
(ltp526
a(V[2005] Speak For Yourself
VImogen Heap/Solo Work/[2005] Speak For Yourself
(ltp527
atp528
atp529
a(VInternet Superstars
VInternet Superstars
(lp530
(VHouseMasta
VInternet Superstars/HouseMasta
(ltp531
a(VOCRemix
VInternet Superstars/OCRemix
(lp532
(VOverClocked ReMix OCR00001 to OCR01000
VInternet Superstars/OCRemix/OverClocked ReMix OCR00001 to OCR01000
(ltp533
a(VOverClocked ReMix OCR01001 to OCR01700
VInternet Superstars/OCRemix/OverClocked ReMix OCR01001 to OCR01700
(ltp534
atp535
a(VTay Zonday
VInternet Superstars/Tay Zonday
(ltp536
a(VYTMND
VInternet Superstars/YTMND
(lp537
(VThe Soundtrack
VInternet Superstars/YTMND/The Soundtrack
(lp538
(VExtras
VInternet Superstars/YTMND/The Soundtrack/Extras
(ltp539
a(VPromotions
VInternet Superstars/YTMND/The Soundtrack/Promotions
(ltp540
a(VVolume 01
VInternet Superstars/YTMND/The Soundtrack/Volume 01
(ltp541
a(VVolume 02
VInternet Superstars/YTMND/The Soundtrack/Volume 02
(ltp542
a(VVolume 03
VInternet Superstars/YTMND/The Soundtrack/Volume 03
(ltp543
a(VVolume 04
VInternet Superstars/YTMND/The Soundtrack/Volume 04
(ltp544
a(VVolume 05
VInternet Superstars/YTMND/The Soundtrack/Volume 05
(ltp545
a(VVolume 06
VInternet Superstars/YTMND/The Soundtrack/Volume 06
(ltp546
a(VVolume 07
VInternet Superstars/YTMND/The Soundtrack/Volume 07
(ltp547
a(VVolume 08
VInternet Superstars/YTMND/The Soundtrack/Volume 08
(ltp548
a(VVolume 09
VInternet Superstars/YTMND/The Soundtrack/Volume 09
(ltp549
a(VVolume 10
VInternet Superstars/YTMND/The Soundtrack/Volume 10
(lp550
(VCD 1
VInternet Superstars/YTMND/The Soundtrack/Volume 10/CD 1
(ltp551
a(VCD 2
VInternet Superstars/YTMND/The Soundtrack/Volume 10/CD 2
(ltp552
a(VCD 3
VInternet Superstars/YTMND/The Soundtrack/Volume 10/CD 3
(ltp553
atp554
a(VVolume 11
VInternet Superstars/YTMND/The Soundtrack/Volume 11
(ltp555
a(VVolume 12
VInternet Superstars/YTMND/The Soundtrack/Volume 12
(ltp556
a(VVolume 13
VInternet Superstars/YTMND/The Soundtrack/Volume 13
(ltp557
a(VVolume 14
VInternet Superstars/YTMND/The Soundtrack/Volume 14
(ltp558
a(VVolume 15
VInternet Superstars/YTMND/The Soundtrack/Volume 15
(lp559
(VCD 1
VInternet Superstars/YTMND/The Soundtrack/Volume 15/CD 1
(ltp560
a(VCD 2
VInternet Superstars/YTMND/The Soundtrack/Volume 15/CD 2
(ltp561
atp562
a(VVolume 16
VInternet Superstars/YTMND/The Soundtrack/Volume 16
(ltp563
a(VVolume 17
VInternet Superstars/YTMND/The Soundtrack/Volume 17
(ltp564
atp565
atp566
a(VZeRo BaSs
VInternet Superstars/ZeRo BaSs
(ltp567
atp568
a(VJack Johnson
VJack Johnson
(lp569
(V[2001] Brushfire Fairytales
VJack Johnson/[2001] Brushfire Fairytales
(ltp570
a(V[2003] On And On
VJack Johnson/[2003] On And On
(ltp571
a(V[2005] In Between Dreams
VJack Johnson/[2005] In Between Dreams
(ltp572
a(V[2005] More FM Afternoon Breakfast
VJack Johnson/[2005] More FM Afternoon Breakfast
(ltp573
a(V[2008] Sleep Through The Static
VJack Johnson/[2008] Sleep Through The Static
(ltp574
atp575
a(VJason Mraz
VJason Mraz
(lp576
(V[2002] Waiting For My Rocket To Come
VJason Mraz/[2002] Waiting For My Rocket To Come
(ltp577
a(V[2005] MR. A-Z
VJason Mraz/[2005] MR. A-Z
(ltp578
a(V[2008] We Sing. We Dance. We Steal Things
VJason Mraz/[2008] We Sing. We Dance. We Steal Things
(ltp579
atp580
a(VJet
VJet
(lp581
(V[2003] Get Born
VJet/[2003] Get Born
(ltp582
a(V[2006] Shine On
VJet/[2006] Shine On
(ltp583
atp584
a(VJohn Mayer
VJohn Mayer
(lp585
(V[2001] Room for Squares
VJohn Mayer/[2001] Room for Squares
(ltp586
a(V[2003] Heavier Things
VJohn Mayer/[2003] Heavier Things
(ltp587
a(V[2006] Continuum
VJohn Mayer/[2006] Continuum
(ltp588
atp589
a(VJohn Williams
VJohn Williams
(lp590
(VA.I. Articial Intelligence
VJohn Williams/A.I. Articial Intelligence
(ltp591
a(VAmerica the Beautiful
VJohn Williams/America the Beautiful
(ltp592
a(VAn American Journey - Winter Olympics 200
VJohn Williams/An American Journey - Winter Olympics 200
(ltp593
a(VChamber of Secrets
VJohn Williams/Chamber of Secrets
(ltp594
a(VClose Encounters
VJohn Williams/Close Encounters
(ltp595
a(VET
VJohn Williams/ET
(ltp596
a(VEmpire of the Sun (1987)
VJohn Williams/Empire of the Sun (1987)
(ltp597
a(VFar and Away (1992)
VJohn Williams/Far and Away (1992)
(ltp598
a(VHook (Ultimate Edition)
VJohn Williams/Hook (Ultimate Edition)
(lp599
(VCD 1 - Neverland
VJohn Williams/Hook (Ultimate Edition)/CD 1 - Neverland
(ltp600
a(VCD 2 - Ultimate War
VJohn Williams/Hook (Ultimate Edition)/CD 2 - Ultimate War
(ltp601
a(VCD 3 - Additional Music
VJohn Williams/Hook (Ultimate Edition)/CD 3 - Additional Music
(ltp602
atp603
a(VI Love A  Parade
VJohn Williams/I Love A  Parade
(ltp604
a(VIndiana Jones 3
VJohn Williams/Indiana Jones 3
(ltp605
a(VIndiana Jones Trilogy -The City of Prague Philharmonic Orchestra
VJohn Williams/Indiana Jones Trilogy -The City of Prague Philharmonic Orchestra
(ltp606
a(VJaws 20th Anniversary
VJohn Williams/Jaws 20th Anniversary
(ltp607
a(VJurassic Park
VJohn Williams/Jurassic Park
(ltp608
a(VMinority Report
VJohn Williams/Minority Report
(ltp609
a(VPrisoner of Azkaban
VJohn Williams/Prisoner of Azkaban
(ltp610
a(VRaiders of the Lost Ark
VJohn Williams/Raiders of the Lost Ark
(ltp611
a(VSorceror's Stone
VJohn Williams/Sorceror's Stone
(ltp612
a(VStar Wars Ep I Disc 1
VJohn Williams/Star Wars Ep I Disc 1
(ltp613
a(VStar Wars Ep I Disc 2
VJohn Williams/Star Wars Ep I Disc 2
(ltp614
a(VStar Wars Ep III
VJohn Williams/Star Wars Ep III
(ltp615
a(VStar Wars Ep IV
VJohn Williams/Star Wars Ep IV
(ltp616
a(VStar Wars Ep V
VJohn Williams/Star Wars Ep V
(ltp617
a(VStar Wars Ep VI
VJohn Williams/Star Wars Ep VI
(ltp618
a(VStar Wars Episode I- The Phantom Menace (Original Motion Picture
VJohn Williams/Star Wars Episode I- The Phantom Menace (Original Motion Picture
(ltp619
a(VStar Wars Episode II- Attack of the Clones
VJohn Williams/Star Wars Episode II- Attack of the Clones
(ltp620
a(VSuperman -The Movie
VJohn Williams/Superman -The Movie
(ltp621
a(VThe Patriot
VJohn Williams/The Patriot
(ltp622
a(VThe Temple of Doom
VJohn Williams/The Temple of Doom
(ltp623
a(VWar of the Worlds
VJohn Williams/War of the Worlds
(ltp624
atp625
a(VJonas Brothers
VJonas Brothers
(lp626
(V[2007] Jonas Brothers
VJonas Brothers/[2007] Jonas Brothers
(ltp627
atp628
a(VJordin Sparks
VJordin Sparks
(lp629
(V[2007] Jordin Sparks
VJordin Sparks/[2007] Jordin Sparks
(ltp630
atp631
a(VJourney
VJourney
(lp632
(VGreatest Hits
VJourney/Greatest Hits
(ltp633
atp634
a(VJustin Timberlake
VJustin Timberlake
(lp635
(V[2002] Justified
VJustin Timberlake/[2002] Justified
(ltp636
a(V[2006] FutureSexLoveSounds
VJustin Timberlake/[2006] FutureSexLoveSounds
(ltp637
a(V[2008] 4 Minutes to Save the World (feat. Madonna)
VJustin Timberlake/[2008] 4 Minutes to Save the World (feat. Madonna)
(ltp638
atp639
a(VKaty Perry
VKaty Perry
(lp640
(V[2008] One of the Boys
VKaty Perry/[2008] One of the Boys
(ltp641
atp642
a(VKeane
VKeane
(lp643
(V[2004] Hopes and Fears
VKeane/[2004] Hopes and Fears
(ltp644
a(V[2006] Under The Iron Sea
VKeane/[2006] Under The Iron Sea
(ltp645
a(V[2008] Perfect Symmetry
VKeane/[2008] Perfect Symmetry
(ltp646
atp647
a(VLady GaGa
VLady GaGa
(lp648
(V[2009] The Fame
VLady GaGa/[2009] The Fame
(ltp649
atp650
a(VLed Zeppelin
VLed Zeppelin
(lp651
(VGreatest Hits
VLed Zeppelin/Greatest Hits
(lp652
(VCD 1
VLed Zeppelin/Greatest Hits/CD 1
(ltp653
a(VCD 2
VLed Zeppelin/Greatest Hits/CD 2
(ltp654
a(VCD 3
VLed Zeppelin/Greatest Hits/CD 3
(ltp655
a(VCD 4
VLed Zeppelin/Greatest Hits/CD 4
(ltp656
atp657
atp658
a(VLooper
VLooper
(lp659
(V[2000] The Geometrid
VLooper/[2000] The Geometrid
(ltp660
atp661
a(VLynyrd Skynyrd
VLynyrd Skynyrd
(lp662
(VGreatest Hits
VLynyrd Skynyrd/Greatest Hits
(lp663
(VCD 1
VLynyrd Skynyrd/Greatest Hits/CD 1
(ltp664
a(VCD 2
VLynyrd Skynyrd/Greatest Hits/CD 2
(ltp665
atp666
atp667
a(VMaroon 5
VMaroon 5
(lp668
(V[2002] Songs About Jane
VMaroon 5/[2002] Songs About Jane
(ltp669
a(V[2007] It Won't Be Soon Before Long
VMaroon 5/[2007] It Won't Be Soon Before Long
(ltp670
atp671
a(VMatchbox Twenty
VMatchbox Twenty
(lp672
(VMiscellaneous
VMatchbox Twenty/Miscellaneous
(ltp673
a(V[1996] Yourself Or Someone Like You
VMatchbox Twenty/[1996] Yourself Or Someone Like You
(ltp674
a(V[2000] Mad Season
VMatchbox Twenty/[2000] Mad Season
(ltp675
a(V[2003] More Than You Think You Are
VMatchbox Twenty/[2003] More Than You Think You Are
(ltp676
a(V[2007] Exile on Mainstream
VMatchbox Twenty/[2007] Exile on Mainstream
(ltp677
atp678
a(VMichael Buble
VMichael Buble
(lp679
(V[2005] It's Time
VMichael Buble/[2005] It's Time
(ltp680
a(V[2007] Call Me Irresponsible
VMichael Buble/[2007] Call Me Irresponsible
(ltp681
atp682
a(VMichael Jackson
VMichael Jackson
(lp683
(VGreatest Hits
VMichael Jackson/Greatest Hits
(lp684
(VCD 1
VMichael Jackson/Greatest Hits/CD 1
(ltp685
a(VCD 2
VMichael Jackson/Greatest Hits/CD 2
(ltp686
atp687
atp688
a(VMichael Sanders
VMichael Sanders
(lp689
(VSalsa Commodity
VMichael Sanders/Salsa Commodity
(lp690
(V[2004] Homemade Ice Cream
VMichael Sanders/Salsa Commodity/[2004] Homemade Ice Cream
(ltp691
atp692
a(VStrike Four
VMichael Sanders/Strike Four
(lp693
(VOur Music is Free
VMichael Sanders/Strike Four/Our Music is Free
(ltp694
a(VThe QBC EP
VMichael Sanders/Strike Four/The QBC EP
(ltp695
atp696
atp697
a(VMichelle Branch
VMichelle Branch
(lp698
(V[2000] Broken Bracelet
VMichelle Branch/[2000] Broken Bracelet
(ltp699
a(V[2001] The Spirit Room
VMichelle Branch/[2001] The Spirit Room
(ltp700
a(V[2003] Hotel Paper
VMichelle Branch/[2003] Hotel Paper
(ltp701
atp702
a(VMike Shinoda
VMike Shinoda
(lp703
(VFort Minor
VMike Shinoda/Fort Minor
(lp704
(V[2005] The Rising Tied
VMike Shinoda/Fort Minor/[2005] The Rising Tied
(ltp705
atp706
a(VLinkin Park
VMike Shinoda/Linkin Park
(lp707
(V[2000] Hybrid Theory
VMike Shinoda/Linkin Park/[2000] Hybrid Theory
(ltp708
a(V[2003] Meteora
VMike Shinoda/Linkin Park/[2003] Meteora
(ltp709
a(V[2007] Minutes to Midnight
VMike Shinoda/Linkin Park/[2007] Minutes to Midnight
(ltp710
atp711
atp712
a(VNine Inch Nails
VNine Inch Nails
(lp713
(V[1989] Down In It
VNine Inch Nails/[1989] Down In It
(ltp714
a(V[1989] Pretty Hate Machine
VNine Inch Nails/[1989] Pretty Hate Machine
(ltp715
a(V[1990] Head Like A Hole
VNine Inch Nails/[1990] Head Like A Hole
(ltp716
a(V[1990] Sin
VNine Inch Nails/[1990] Sin
(ltp717
a(V[1992] Broken
VNine Inch Nails/[1992] Broken
(ltp718
a(V[1992] Fixed
VNine Inch Nails/[1992] Fixed
(ltp719
a(V[1994] Closer To God
VNine Inch Nails/[1994] Closer To God
(ltp720
a(V[1994] March Of The Pigs
VNine Inch Nails/[1994] March Of The Pigs
(ltp721
a(V[1994] Natural Born Killers (Soundtrack)
VNine Inch Nails/[1994] Natural Born Killers (Soundtrack)
(ltp722
a(V[1994] The Crow (Soundtrack)
VNine Inch Nails/[1994] The Crow (Soundtrack)
(ltp723
a(V[1994] The Downward Spiral
VNine Inch Nails/[1994] The Downward Spiral
(ltp724
a(V[1995] Further Down The Spiral
VNine Inch Nails/[1995] Further Down The Spiral
(ltp725
a(V[1996] Quake (Soundtrack)
VNine Inch Nails/[1996] Quake (Soundtrack)
(ltp726
a(V[1997] David Bowie & NIN - I'm Afraid Of Americans
VNine Inch Nails/[1997] David Bowie & NIN - I'm Afraid Of Americans
(ltp727
a(V[1997] Lost Highway (Soundtrack)
VNine Inch Nails/[1997] Lost Highway (Soundtrack)
(ltp728
a(V[1997] The Perfect Drug
VNine Inch Nails/[1997] The Perfect Drug
(ltp729
a(V[1999] The Day The World Went Away
VNine Inch Nails/[1999] The Day The World Went Away
(ltp730
a(V[1999] The Fragile
VNine Inch Nails/[1999] The Fragile
(lp731
(VCD 1 (Left)
VNine Inch Nails/[1999] The Fragile/CD 1 (Left)
(ltp732
a(VCD 1 (Right)
VNine Inch Nails/[1999] The Fragile/CD 1 (Right)
(ltp733
atp734
a(V[1999] We're In This Together
VNine Inch Nails/[1999] We're In This Together
(lp735
(VCD 1
VNine Inch Nails/[1999] We're In This Together/CD 1
(ltp736
a(VCD 2
VNine Inch Nails/[1999] We're In This Together/CD 2
(ltp737
a(VCD 3
VNine Inch Nails/[1999] We're In This Together/CD 3
(ltp738
atp739
a(V[2000] Things Falling Apart
VNine Inch Nails/[2000] Things Falling Apart
(ltp740
a(V[2001] Tomb Raider (Soundtrack)
VNine Inch Nails/[2001] Tomb Raider (Soundtrack)
(ltp741
a(V[2002] And All That Could Have Been
VNine Inch Nails/[2002] And All That Could Have Been
(lp742
(VCD 1 (Live)
VNine Inch Nails/[2002] And All That Could Have Been/CD 1 (Live)
(ltp743
a(VCD 2 (Still)
VNine Inch Nails/[2002] And All That Could Have Been/CD 2 (Still)
(ltp744
atp745
a(V[2002] Special Tribute
VNine Inch Nails/[2002] Special Tribute
(ltp746
a(V[2005] With Teeth
VNine Inch Nails/[2005] With Teeth
(ltp747
a(V[2007] Ghosts
VNine Inch Nails/[2007] Ghosts
(lp748
(VI
VNine Inch Nails/[2007] Ghosts/I
(ltp749
a(VII
VNine Inch Nails/[2007] Ghosts/II
(ltp750
a(VIII
VNine Inch Nails/[2007] Ghosts/III
(ltp751
a(VIV
VNine Inch Nails/[2007] Ghosts/IV
(ltp752
atp753
a(V[2007] Year Zero
VNine Inch Nails/[2007] Year Zero
(ltp754
a(V[2008] The Slip
VNine Inch Nails/[2008] The Slip
(ltp755
atp756
a(VOasis
VOasis
(lp757
(V[1994] Definitely Maybe
VOasis/[1994] Definitely Maybe
(ltp758
a(V[1995] (What's the Story) Morning Glory
VOasis/[1995] (What's the Story) Morning Glory
(ltp759
a(V[1998] Be Here Now
VOasis/[1998] Be Here Now
(ltp760
a(V[1998] The Masterplan
VOasis/[1998] The Masterplan
(ltp761
a(V[2000] Standing on the Shoulder of Giants
VOasis/[2000] Standing on the Shoulder of Giants
(ltp762
a(V[2002] Heathen Chemistry
VOasis/[2002] Heathen Chemistry
(ltp763
atp764
a(VOf Montreal
VOf Montreal
(lp765
(V[2007] Hissing Fauna, Are You The Destroyer
VOf Montreal/[2007] Hissing Fauna, Are You The Destroyer
(ltp766
atp767
a(VOk Go
VOk Go
(lp768
(V[2005] Oh No
VOk Go/[2005] Oh No
(ltp769
atp770
a(VOneRepublic
VOneRepublic
(lp771
(V[2007] Dreaming Out Loud
VOneRepublic/[2007] Dreaming Out Loud
(ltp772
atp773
a(VOur Lady Peace
VOur Lady Peace
(lp774
(V[2002] Gravity
VOur Lady Peace/[2002] Gravity
(ltp775
atp776
a(VP!nk
VP!nk
(lp777
(V[2000] Can't Take Me Home
VP!nk/[2000] Can't Take Me Home
(ltp778
a(V[2001] M!ssundaztood
VP!nk/[2001] M!ssundaztood
(ltp779
a(V[2003] Try This
VP!nk/[2003] Try This
(ltp780
a(V[2006] I'm Not Dead
VP!nk/[2006] I'm Not Dead
(ltp781
a(V[2008] Funhouse
VP!nk/[2008] Funhouse
(ltp782
atp783
a(VP.D.Q. Bach
VP.D.Q. Bach
(lp784
(V[1995] The Short-Tempered Clavier
VP.D.Q. Bach/[1995] The Short-Tempered Clavier
(ltp785
atp786
a(VPaul McCartney And Wings
VPaul McCartney And Wings
(lp787
(VGreatest Hits
VPaul McCartney And Wings/Greatest Hits
(ltp788
atp789
a(VQueen
VQueen
(lp790
(VGreatest Hits
VQueen/Greatest Hits
(lp791
(VCD 1
VQueen/Greatest Hits/CD 1
(ltp792
a(VCD 2
VQueen/Greatest Hits/CD 2
(ltp793
atp794
atp795
a(VRadiohead
VRadiohead
(lp796
(V[1993] Pablo Honey
VRadiohead/[1993] Pablo Honey
(ltp797
a(V[1995] The Bends
VRadiohead/[1995] The Bends
(ltp798
a(V[1997] OK Computer
VRadiohead/[1997] OK Computer
(ltp799
a(V[2000] Kid A
VRadiohead/[2000] Kid A
(ltp800
a(V[2001] Amnesiac
VRadiohead/[2001] Amnesiac
(ltp801
a(V[2003] Hail to the Theif
VRadiohead/[2003] Hail to the Theif
(ltp802
a(V[2007] In Rainbows
VRadiohead/[2007] In Rainbows
(lp803
(VCD 1
VRadiohead/[2007] In Rainbows/CD 1
(ltp804
a(VCD 2
VRadiohead/[2007] In Rainbows/CD 2
(ltp805
atp806
atp807
a(VRatatat
VRatatat
(lp808
(V[2004] Ratatat Remixes Mixtape Vol 1
VRatatat/[2004] Ratatat Remixes Mixtape Vol 1
(ltp809
a(V[2007] Ratatat Remixes Mixtape Vol 2
VRatatat/[2007] Ratatat Remixes Mixtape Vol 2
(ltp810
atp811
a(VReel Big Fish
VReel Big Fish
(lp812
(VMiscellaneous
VReel Big Fish/Miscellaneous
(ltp813
a(V[1995] Everything Sucks
VReel Big Fish/[1995] Everything Sucks
(ltp814
a(V[1996] Turn the Radio Off
VReel Big Fish/[1996] Turn the Radio Off
(ltp815
a(V[1997] Keep Your Receipt
VReel Big Fish/[1997] Keep Your Receipt
(ltp816
a(V[1998] Why Do They Rock So Hard
VReel Big Fish/[1998] Why Do They Rock So Hard
(ltp817
a(V[2002] Cheer Up!
VReel Big Fish/[2002] Cheer Up!
(ltp818
a(V[2003] Favorite Noise
VReel Big Fish/[2003] Favorite Noise
(ltp819
a(V[2005] We're Not Happy 'Til You're Not Happy
VReel Big Fish/[2005] We're Not Happy 'Til You're Not Happy
(ltp820
atp821
a(VRichard Cheese
VRichard Cheese
(lp822
(VMiscellaneous
VRichard Cheese/Miscellaneous
(ltp823
a(V[2000] Lounge Against The Machine
VRichard Cheese/[2000] Lounge Against The Machine
(ltp824
a(V[2003] Tuxicity
VRichard Cheese/[2003] Tuxicity
(ltp825
a(V[2004] I'd Like a Virgin
VRichard Cheese/[2004] I'd Like a Virgin
(ltp826
a(V[2005] Aperitif For Destruction
VRichard Cheese/[2005] Aperitif For Destruction
(ltp827
a(V[2006] Silent Nightclub
VRichard Cheese/[2006] Silent Nightclub
(ltp828
a(V[2006] The Sunny Side Of The Moon
VRichard Cheese/[2006] The Sunny Side Of The Moon
(ltp829
a(V[2007] Dick At Night
VRichard Cheese/[2007] Dick At Night
(ltp830
atp831
a(VRihanna
VRihanna
(lp832
(V[2005] Music Of The Sun
VRihanna/[2005] Music Of The Sun
(ltp833
a(V[2006] A Girl Like Me
VRihanna/[2006] A Girl Like Me
(ltp834
a(V[2008] Good Girl Gone Bad - Reloaded
VRihanna/[2008] Good Girl Gone Bad - Reloaded
(ltp835
atp836
a(VRoyksopp
VRoyksopp
(lp837
(VRo\u0308yksopp - Junior
VRoyksopp/Ro\u0308yksopp - Junior
(ltp838
a(V[2001] Melody A.M
VRoyksopp/[2001] Melody A.M
(ltp839
a(V[2005] The Understanding
VRoyksopp/[2005] The Understanding
(lp840
(VBonus CD
VRoyksopp/[2005] The Understanding/Bonus CD
(ltp841
atp842
a(V[2009] Junior
VRoyksopp/[2009] Junior
(ltp843
atp844
a(VSR-71
VSR-71
(lp845
(V[2001] Now You See Inside
VSR-71/[2001] Now You See Inside
(ltp846
a(V[2002] Tomorrow
VSR-71/[2002] Tomorrow
(ltp847
a(V[2004] Here We Go Again
VSR-71/[2004] Here We Go Again
(ltp848
atp849
a(VSara Bareilles
VSara Bareilles
(lp850
(V[2007] Little Voice
VSara Bareilles/[2007] Little Voice
(ltp851
atp852
a(VScatman John
VScatman John
(lp853
(V[1995] Scatman's World
VScatman John/[1995] Scatman's World
(ltp854
a(V[1996] Everybody Jam
VScatman John/[1996] Everybody Jam
(ltp855
atp856
a(VSean Kingston
VSean Kingston
(lp857
(V[2007] Sean Kingston
VSean Kingston/[2007] Sean Kingston
(ltp858
a(V[2007] There's Nothing (Single)
VSean Kingston/[2007] There's Nothing (Single)
(ltp859
atp860
a(VSieges Even
VSieges Even
(lp861
(V[2008] Playgrounds Lt. Blogis
VSieges Even/[2008] Playgrounds Lt. Blogis
(ltp862
atp863
a(VSnow Patrol
VSnow Patrol
(lp864
(V[2004] Final Straw
VSnow Patrol/[2004] Final Straw
(ltp865
a(V[2006] Eyes Open
VSnow Patrol/[2006] Eyes Open
(ltp866
a(V[2009] A Hundred Million Suns
VSnow Patrol/[2009] A Hundred Million Suns
(ltp867
atp868
a(VSoundtracks
VSoundtracks
(lp869
(VAvenue Q
VSoundtracks/Avenue Q
(ltp870
a(VDr Horrible's Sing-Along Blog Soundtrack
VSoundtracks/Dr Horrible's Sing-Along Blog Soundtrack
(ltp871
a(VFinding Nemo
VSoundtracks/Finding Nemo
(ltp872
a(VJames Bond
VSoundtracks/James Bond
(ltp873
a(VLOST
VSoundtracks/LOST
(lp874
(VSeason 1
VSoundtracks/LOST/Season 1
(ltp875
a(VSeason 2
VSoundtracks/LOST/Season 2
(ltp876
atp877
a(VLord of the Rings
VSoundtracks/Lord of the Rings
(lp878
(V2001 - The Fellowship Of The Ring
VSoundtracks/Lord of the Rings/2001 - The Fellowship Of The Ring
(ltp879
a(V2002 - The Two Towers
VSoundtracks/Lord of the Rings/2002 - The Two Towers
(ltp880
a(V2003 - The Return Of The King
VSoundtracks/Lord of the Rings/2003 - The Return Of The King
(ltp881
atp882
a(VNaruto
VSoundtracks/Naruto
(ltp883
a(VNickelodeon
VSoundtracks/Nickelodeon
(ltp884
a(VPirates of the Caribbean
VSoundtracks/Pirates of the Caribbean
(lp885
(V[2003] Pirates of the Caribbean - The Curse of the Black Pearl
VSoundtracks/Pirates of the Caribbean/[2003] Pirates of the Caribbean - The Curse of the Black Pearl
(ltp886
a(V[2006] Pirates Of The Caribbean - Dead Man's Chest
VSoundtracks/Pirates of the Caribbean/[2006] Pirates Of The Caribbean - Dead Man's Chest
(ltp887
a(V[2007] Pirate Of The Caribbean - At World's End
VSoundtracks/Pirates of the Caribbean/[2007] Pirate Of The Caribbean - At World's End
(ltp888
atp889
a(VRent
VSoundtracks/Rent
(ltp890
a(VSlumdog Millionaire
VSoundtracks/Slumdog Millionaire
(ltp891
a(VWALL-E
VSoundtracks/WALL-E
(ltp892
a(VWicked
VSoundtracks/Wicked
(ltp893
atp894
a(VSteely Dan
VSteely Dan
(lp895
(VGreatest Hits
VSteely Dan/Greatest Hits
(ltp896
atp897
a(VStevie Wonder
VStevie Wonder
(lp898
(VGreatest Hits
VStevie Wonder/Greatest Hits
(ltp899
atp900
a(VSublime
VSublime
(lp901
(V[1992] 40 Oz To Freedom
VSublime/[1992] 40 Oz To Freedom
(ltp902
a(V[1994] Robbin' the Hood
VSublime/[1994] Robbin' the Hood
(ltp903
a(V[1996] Sublime
VSublime/[1996] Sublime
(ltp904
a(V[1997] Second Hand Smoke
VSublime/[1997] Second Hand Smoke
(ltp905
atp906
a(VTV on the Radio
VTV on the Radio
(lp907
(VMiscellaneous
VTV on the Radio/Miscellaneous
(ltp908
a(V[2002] OK Calculator
VTV on the Radio/[2002] OK Calculator
(ltp909
a(V[2003] Young Liars (EP)
VTV on the Radio/[2003] Young Liars (EP)
(ltp910
a(V[2004] Desperate Youth, Bloodthirsty Babes
VTV on the Radio/[2004] Desperate Youth, Bloodthirsty Babes
(ltp911
a(V[2004] New Health Rock (EP)
VTV on the Radio/[2004] New Health Rock (EP)
(ltp912
a(V[2004] Staring at the Sun (EP)
VTV on the Radio/[2004] Staring at the Sun (EP)
(ltp913
a(V[2006] Return To Cookie Mountain
VTV on the Radio/[2006] Return To Cookie Mountain
(ltp914
a(V[2006] Wolf Like Me (EP)
VTV on the Radio/[2006] Wolf Like Me (EP)
(ltp915
a(V[2007] Live At Amoeba Music (EP)
VTV on the Radio/[2007] Live At Amoeba Music (EP)
(ltp916
a(V[2007] Province (EP)
VTV on the Radio/[2007] Province (EP)
(ltp917
a(V[2008] Dear Science
VTV on the Radio/[2008] Dear Science
(ltp918
atp919
a(VTaylor Swift
VTaylor Swift
(lp920
(VMiscellaneous
VTaylor Swift/Miscellaneous
(ltp921
a(V[2006] Taylor Swift
VTaylor Swift/[2006] Taylor Swift
(ltp922
a(V[2008] Fearless
VTaylor Swift/[2008] Fearless
(ltp923
atp924
a(VTenacious D
VTenacious D
(lp925
(V[2006] Tenacious D
VTenacious D/[2006] Tenacious D
(ltp926
a(V[2006] The Pick of Destiny
VTenacious D/[2006] The Pick of Destiny
(ltp927
atp928
a(VThe All-American Rejects
VThe All-American Rejects
(lp929
(V[2002] The All-American Rejects
VThe All-American Rejects/[2002] The All-American Rejects
(ltp930
a(V[2005] Move Along
VThe All-American Rejects/[2005] Move Along
(ltp931
atp932
a(VThe Bens
VThe Bens
(lp933
(VBen Folds
VThe Bens/Ben Folds
(lp934
(VBen Folds
VThe Bens/Ben Folds/Ben Folds
(lp935
(VMiscellaneous
VThe Bens/Ben Folds/Ben Folds/Miscellaneous
(ltp936
a(V[2001] Rockin' The Suburbs
VThe Bens/Ben Folds/Ben Folds/[2001] Rockin' The Suburbs
(ltp937
a(V[2002] Ben Folds Live
VThe Bens/Ben Folds/Ben Folds/[2002] Ben Folds Live
(ltp938
a(V[2003] Speed Graphic
VThe Bens/Ben Folds/Ben Folds/[2003] Speed Graphic
(ltp939
a(V[2003] Sunny 16 EP
VThe Bens/Ben Folds/Ben Folds/[2003] Sunny 16 EP
(ltp940
a(V[2004] Super D
VThe Bens/Ben Folds/Ben Folds/[2004] Super D
(ltp941
a(V[2005] Ben Folds And WASO Live In Perth
VThe Bens/Ben Folds/Ben Folds/[2005] Ben Folds And WASO Live In Perth
(ltp942
a(V[2005] Songs For Silverman
VThe Bens/Ben Folds/Ben Folds/[2005] Songs For Silverman
(ltp943
a(V[2006] Over The Hedge
VThe Bens/Ben Folds/Ben Folds/[2006] Over The Hedge
(ltp944
a(V[2006] Songs For Goldfish
VThe Bens/Ben Folds/Ben Folds/[2006] Songs For Goldfish
(ltp945
a(V[2006] Supersunnyspeedgraphic, the LP
VThe Bens/Ben Folds/Ben Folds/[2006] Supersunnyspeedgraphic, the LP
(ltp946
a(V[2008] Way To Normal
VThe Bens/Ben Folds/Ben Folds/[2008] Way To Normal
(ltp947
a(V[2008] Way To Normal (Leak - FAKE)
VThe Bens/Ben Folds/Ben Folds/[2008] Way To Normal (Leak - FAKE)
(ltp948
a(V[2009] Stems and Seeds
VThe Bens/Ben Folds/Ben Folds/[2009] Stems and Seeds
(ltp949
a(V[2009] University Acapella
VThe Bens/Ben Folds/Ben Folds/[2009] University Acapella
(ltp950
a(ViTunes Originals
VThe Bens/Ben Folds/Ben Folds/iTunes Originals
(ltp951
atp952
a(VBen Folds Five
VThe Bens/Ben Folds/Ben Folds Five
(lp953
(VMiscellaneous
VThe Bens/Ben Folds/Ben Folds Five/Miscellaneous
(ltp954
a(V[1995] Ben Folds Five
VThe Bens/Ben Folds/Ben Folds Five/[1995] Ben Folds Five
(ltp955
a(V[1997] Sessions @ West 54th
VThe Bens/Ben Folds/Ben Folds Five/[1997] Sessions @ West 54th
(ltp956
a(V[1997] Whatever and Ever Amen
VThe Bens/Ben Folds/Ben Folds Five/[1997] Whatever and Ever Amen
(ltp957
a(V[1998] Naked Baby Photos
VThe Bens/Ben Folds/Ben Folds Five/[1998] Naked Baby Photos
(ltp958
a(V[1999] The Unauthorized Biography of Reinhold Messner
VThe Bens/Ben Folds/Ben Folds Five/[1999] The Unauthorized Biography of Reinhold Messner
(ltp959
a(ViTunes Originals
VThe Bens/Ben Folds/Ben Folds Five/iTunes Originals
(ltp960
atp961
a(VFear of Pop
VThe Bens/Ben Folds/Fear of Pop
(lp962
(V[1998] Fear of Pop, Vol. 1
VThe Bens/Ben Folds/Fear of Pop/[1998] Fear of Pop, Vol. 1
(ltp963
atp964
atp965
a(VBen Kweller
VThe Bens/Ben Kweller
(lp966
(V[2002] Sha Sha
VThe Bens/Ben Kweller/[2002] Sha Sha
(ltp967
a(V[2004] On My Way
VThe Bens/Ben Kweller/[2004] On My Way
(ltp968
a(V[2006] Ben Kweller
VThe Bens/Ben Kweller/[2006] Ben Kweller
(ltp969
a(V[2009] Changing Horses
VThe Bens/Ben Kweller/[2009] Changing Horses
(ltp970
atp971
a(VBen Lee
VThe Bens/Ben Lee
(lp972
(V[1995] Grandpaw Would
VThe Bens/Ben Lee/[1995] Grandpaw Would
(ltp973
a(V[1997] Something To Remember Me By
VThe Bens/Ben Lee/[1997] Something To Remember Me By
(ltp974
a(V[1999] Breathing Tornados
VThe Bens/Ben Lee/[1999] Breathing Tornados
(ltp975
a(V[1999] Live At The Wireless
VThe Bens/Ben Lee/[1999] Live At The Wireless
(ltp976
a(V[2002] Hey You, Yes You
VThe Bens/Ben Lee/[2002] Hey You, Yes You
(ltp977
a(V[2005] Awake is the New Sleep
VThe Bens/Ben Lee/[2005] Awake is the New Sleep
(ltp978
a(V[2007] Ripe
VThe Bens/Ben Lee/[2007] Ripe
(ltp979
a(V[2009] The Rebirth Of Venus
VThe Bens/Ben Lee/[2009] The Rebirth Of Venus
(ltp980
atp981
a(V[2003] The Bens EP
VThe Bens/[2003] The Bens EP
(ltp982
atp983
a(VThe Bravery
VThe Bravery
(lp984
(V[2005] The Bravery
VThe Bravery/[2005] The Bravery
(ltp985
a(V[2008] The Sun and the Moon Complete
VThe Bravery/[2008] The Sun and the Moon Complete
(lp986
(VCD 1 (The Sun)
VThe Bravery/[2008] The Sun and the Moon Complete/CD 1 (The Sun)
(ltp987
a(VCD 2 (The Moon)
VThe Bravery/[2008] The Sun and the Moon Complete/CD 2 (The Moon)
(ltp988
atp989
atp990
a(VThe Click Five
VThe Click Five
(lp991
(V[2005] Greetings from Imrie House
VThe Click Five/[2005] Greetings from Imrie House
(ltp992
a(V[2007] Modern Minds
VThe Click Five/[2007] Modern Minds
(ltp993
atp994
a(VThe Cranberries
VThe Cranberries
(lp995
(VGreatest Hits
VThe Cranberries/Greatest Hits
(ltp996
atp997
a(VThe Cure
VThe Cure
(lp998
(VGreatest Hits
VThe Cure/Greatest Hits
(ltp999
atp1000
a(VThe Doors
VThe Doors
(lp1001
(VGreatest Hits
VThe Doors/Greatest Hits
(ltp1002
atp1003
a(VThe Eagles
VThe Eagles
(lp1004
(VGreatest Hits
VThe Eagles/Greatest Hits
(ltp1005
atp1006
a(VThe Flaming Lips
VThe Flaming Lips
(lp1007
(VGreatest Hits
VThe Flaming Lips/Greatest Hits
(ltp1008
atp1009
a(VThe Fray
VThe Fray
(lp1010
(V[2005] How to Save a Life
VThe Fray/[2005] How to Save a Life
(ltp1011
a(V[2009] The Fray
VThe Fray/[2009] The Fray
(ltp1012
atp1013
a(VThe Killers
VThe Killers
(lp1014
(VMiscellaneous
VThe Killers/Miscellaneous
(ltp1015
a(V[2004] Hot Fuss
VThe Killers/[2004] Hot Fuss
(ltp1016
a(V[2006] Sam's Town
VThe Killers/[2006] Sam's Town
(lp1017
(VSam's Town - Best Buy Bonus CD
VThe Killers/[2006] Sam's Town/Sam's Town - Best Buy Bonus CD
(ltp1018
atp1019
a(V[2008] Day & Age
VThe Killers/[2008] Day & Age
(ltp1020
a(V[2008] Sawdust
VThe Killers/[2008] Sawdust
(ltp1021
atp1022
a(VThe Lonely Island
VThe Lonely Island
(lp1023
(VMiscellaneous
VThe Lonely Island/Miscellaneous
(ltp1024
a(V[2009] Incredibad
VThe Lonely Island/[2009] Incredibad
(ltp1025
atp1026
a(VThe Mae Shi
VThe Mae Shi
(lp1027
(VMiscellaneous
VThe Mae Shi/Miscellaneous
(ltp1028
a(V[2004] Terrorbird
VThe Mae Shi/[2004] Terrorbird
(ltp1029
a(V[2005] Heartbeeps
VThe Mae Shi/[2005] Heartbeeps
(ltp1030
a(V[2008] HLLLYH
VThe Mae Shi/[2008] HLLLYH
(ltp1031
atp1032
a(VThe Offspring
VThe Offspring
(lp1033
(VGreatest Hits
VThe Offspring/Greatest Hits
(ltp1034
atp1035
a(VThe Postal Service
VThe Postal Service
(lp1036
(VMiscellaneous
VThe Postal Service/Miscellaneous
(ltp1037
a(V[2003] Such Great Heights EP
VThe Postal Service/[2003] Such Great Heights EP
(ltp1038
a(V[2003] The District Sleep Alone Tonight EP
VThe Postal Service/[2003] The District Sleep Alone Tonight EP
(ltp1039
a(V[2004] Give Up
VThe Postal Service/[2004] Give Up
(ltp1040
a(V[2005] We Will Become Silouettes EP
VThe Postal Service/[2005] We Will Become Silouettes EP
(ltp1041
atp1042
a(VThe Trans-Siberian Orchestra
VThe Trans-Siberian Orchestra
(lp1043
(V[1996] Christmas Eve and Other Stories
VThe Trans-Siberian Orchestra/[1996] Christmas Eve and Other Stories
(ltp1044
a(V[1998] The Christmas Attic
VThe Trans-Siberian Orchestra/[1998] The Christmas Attic
(ltp1045
a(V[2000] Beethoven's Last Night
VThe Trans-Siberian Orchestra/[2000] Beethoven's Last Night
(ltp1046
a(V[2004] The Lost Christmas Eve
VThe Trans-Siberian Orchestra/[2004] The Lost Christmas Eve
(ltp1047
atp1048
a(VThe Who
VThe Who
(lp1049
(VGreatest Hits
VThe Who/Greatest Hits
(lp1050
(VCD 1
VThe Who/Greatest Hits/CD 1
(ltp1051
a(VCD 2
VThe Who/Greatest Hits/CD 2
(ltp1052
atp1053
atp1054
a(VThe World-Inferno Friendship Society
VThe World-Inferno Friendship Society
(lp1055
(V[2002] Just The Best Party
VThe World-Inferno Friendship Society/[2002] Just The Best Party
(ltp1056
atp1057
a(VThey Might Be Giants
VThey Might Be Giants
(lp1058
(VTMBG Unlimited
VThey Might Be Giants/TMBG Unlimited
(lp1059
(V01 January
VThey Might Be Giants/TMBG Unlimited/01 January
(ltp1060
a(V02 February
VThey Might Be Giants/TMBG Unlimited/02 February
(ltp1061
a(V03 March
VThey Might Be Giants/TMBG Unlimited/03 March
(ltp1062
a(V04 April
VThey Might Be Giants/TMBG Unlimited/04 April
(ltp1063
a(V05 May
VThey Might Be Giants/TMBG Unlimited/05 May
(ltp1064
a(V06 June
VThey Might Be Giants/TMBG Unlimited/06 June
(ltp1065
a(V07 July
VThey Might Be Giants/TMBG Unlimited/07 July
(ltp1066
a(V08 August
VThey Might Be Giants/TMBG Unlimited/08 August
(ltp1067
a(V09 September
VThey Might Be Giants/TMBG Unlimited/09 September
(ltp1068
a(V10 October
VThey Might Be Giants/TMBG Unlimited/10 October
(ltp1069
a(V11 November
VThey Might Be Giants/TMBG Unlimited/11 November
(ltp1070
a(V12 December
VThey Might Be Giants/TMBG Unlimited/12 December
(ltp1071
a(V13 The Flood Show
VThey Might Be Giants/TMBG Unlimited/13 The Flood Show
(ltp1072
a(V14 The Ritz Show
VThey Might Be Giants/TMBG Unlimited/14 The Ritz Show
(ltp1073
atp1074
a(V[1986] They Might Be Giants
VThey Might Be Giants/[1986] They Might Be Giants
(ltp1075
a(V[1989] Lincoln
VThey Might Be Giants/[1989] Lincoln
(ltp1076
a(V[1990] Flood
VThey Might Be Giants/[1990] Flood
(ltp1077
a(V[1992] Apollo 18
VThey Might Be Giants/[1992] Apollo 18
(ltp1078
a(V[1992] The Guitar EP
VThey Might Be Giants/[1992] The Guitar EP
(ltp1079
a(V[1994] John Henry
VThey Might Be Giants/[1994] John Henry
(ltp1080
a(V[1996] Factory Showroom
VThey Might Be Giants/[1996] Factory Showroom
(ltp1081
a(V[1997] Giants Jubilee
VThey Might Be Giants/[1997] Giants Jubilee
(ltp1082
a(V[1997] Mightathon
VThey Might Be Giants/[1997] Mightathon
(ltp1083
a(V[1998] Severe Tire Damage
VThey Might Be Giants/[1998] Severe Tire Damage
(ltp1084
a(V[1999] Long Tall Weekend
VThey Might Be Giants/[1999] Long Tall Weekend
(ltp1085
a(V[2001] Mink Car
VThey Might Be Giants/[2001] Mink Car
(ltp1086
a(V[2001] Radio Sampler
VThey Might Be Giants/[2001] Radio Sampler
(ltp1087
a(V[2002] Dial-A-Song - 20 Years of They Might Be Giants
VThey Might Be Giants/[2002] Dial-A-Song - 20 Years of They Might Be Giants
(ltp1088
a(V[2002] No!
VThey Might Be Giants/[2002] No!
(ltp1089
a(V[2004] Almanac
VThey Might Be Giants/[2004] Almanac
(ltp1090
a(V[2004] Indestructible Object E.P
VThey Might Be Giants/[2004] Indestructible Object E.P
(ltp1091
a(V[2004] July 4th  WXRT Free Concert At Taste
VThey Might Be Giants/[2004] July 4th  WXRT Free Concert At Taste
(ltp1092
a(V[2004] The Spine
VThey Might Be Giants/[2004] The Spine
(ltp1093
a(V[2005] Here Come The ABCs!
VThey Might Be Giants/[2005] Here Come The ABCs!
(ltp1094
a(V[2005] They Got Lost
VThey Might Be Giants/[2005] They Got Lost
(ltp1095
a(V[2005] Venue Songs
VThey Might Be Giants/[2005] Venue Songs
(ltp1096
a(V[2007] The Else
VThey Might Be Giants/[2007] The Else
(ltp1097
a(V[2008] Here Come The 123s!
VThey Might Be Giants/[2008] Here Come The 123s!
(ltp1098
atp1099
a(VThree Dog Night
VThree Dog Night
(lp1100
(VGreatest Hits
VThree Dog Night/Greatest Hits
(ltp1101
atp1102
a(VTimbaland
VTimbaland
(lp1103
(V[2006] Shock Value
VTimbaland/[2006] Shock Value
(ltp1104
atp1105
a(VTom Petty
VTom Petty
(lp1106
(VGreatest Hits
VTom Petty/Greatest Hits
(ltp1107
atp1108
a(VToto
VToto
(lp1109
(VGreatest Hits
VToto/Greatest Hits
(ltp1110
atp1111
a(VTraffic
VTraffic
(lp1112
(VGreatest Hits
VTraffic/Greatest Hits
(ltp1113
atp1114
a(VTravis
VTravis
(lp1115
(V[1997] Good Feeling
VTravis/[1997] Good Feeling
(ltp1116
a(V[1999] The Man Who
VTravis/[1999] The Man Who
(ltp1117
a(V[2001] The Invisible Band
VTravis/[2001] The Invisible Band
(ltp1118
a(V[2003] 12 Memories
VTravis/[2003] 12 Memories
(ltp1119
a(V[2007] The Boy With No Name
VTravis/[2007] The Boy With No Name
(ltp1120
a(V[2008] Ode to J. Smith
VTravis/[2008] Ode to J. Smith
(ltp1121
atp1122
a(VU2
VU2
(lp1123
(VGreatest Hits
VU2/Greatest Hits
(ltp1124
atp1125
a(VVan Morrison
VVan Morrison
(lp1126
(VGreatest Hits
VVan Morrison/Greatest Hits
(ltp1127
atp1128
a(VVertical Horizon
VVertical Horizon
(lp1129
(VGreatest Hits
VVertical Horizon/Greatest Hits
(ltp1130
atp1131
a(VVideo Game OST
VVideo Game OST
(lp1132
(V2D Boy
VVideo Game OST/2D Boy
(lp1133
(VWorld of Goo
VVideo Game OST/2D Boy/World of Goo
(ltp1134
atp1135
a(V=Unsorted=
VVideo Game OST/=Unsorted=
(ltp1136
a(VBungie
VVideo Game OST/Bungie
(lp1137
(VHalo 2
VVideo Game OST/Bungie/Halo 2
(ltp1138
a(VHalo Original Soundtrack
VVideo Game OST/Bungie/Halo Original Soundtrack
(ltp1139
atp1140
a(VCapcom
VVideo Game OST/Capcom
(lp1141
(VMega Man Series
VVideo Game OST/Capcom/Mega Man Series
(lp1142
(VAnniversary Collection
VVideo Game OST/Capcom/Mega Man Series/Anniversary Collection
(ltp1143
a(VMega Man X
VVideo Game OST/Capcom/Mega Man Series/Mega Man X
(ltp1144
a(VMega Man X2
VVideo Game OST/Capcom/Mega Man Series/Mega Man X2
(ltp1145
a(VMega Man X3
VVideo Game OST/Capcom/Mega Man Series/Mega Man X3
(ltp1146
a(VMega Man X4
VVideo Game OST/Capcom/Mega Man Series/Mega Man X4
(ltp1147
a(VMega Man X5
VVideo Game OST/Capcom/Mega Man Series/Mega Man X5
(ltp1148
a(VMega Man X6
VVideo Game OST/Capcom/Mega Man Series/Mega Man X6
(ltp1149
atp1150
atp1151
a(VCyan Entertainment
VVideo Game OST/Cyan Entertainment
(lp1152
(VMyst Series
VVideo Game OST/Cyan Entertainment/Myst Series
(lp1153
(VMyst
VVideo Game OST/Cyan Entertainment/Myst Series/Myst
(ltp1154
a(VRiven
VVideo Game OST/Cyan Entertainment/Myst Series/Riven
(ltp1155
atp1156
atp1157
a(VElectronic Arts
VVideo Game OST/Electronic Arts
(lp1158
(VBoom Blox
VVideo Game OST/Electronic Arts/Boom Blox
(ltp1159
a(VMaxis
VVideo Game OST/Electronic Arts/Maxis
(lp1160
(VThe Sims
VVideo Game OST/Electronic Arts/Maxis/The Sims
(lp1161
(VMusic
VVideo Game OST/Electronic Arts/Maxis/The Sims/Music
(lp1162
(VModes
VVideo Game OST/Electronic Arts/Maxis/The Sims/Music/Modes
(lp1163
(VBuild
VVideo Game OST/Electronic Arts/Maxis/The Sims/Music/Modes/Build
(ltp1164
a(VBuy
VVideo Game OST/Electronic Arts/Maxis/The Sims/Music/Modes/Buy
(ltp1165
a(VNeighborhood
VVideo Game OST/Electronic Arts/Maxis/The Sims/Music/Modes/Neighborhood
(ltp1166
atp1167
a(VStations
VVideo Game OST/Electronic Arts/Maxis/The Sims/Music/Stations
(lp1168
(VBeach
VVideo Game OST/Electronic Arts/Maxis/The Sims/Music/Stations/Beach
(ltp1169
a(VClassica
VVideo Game OST/Electronic Arts/Maxis/The Sims/Music/Stations/Classica
(ltp1170
a(VCountry
VVideo Game OST/Electronic Arts/Maxis/The Sims/Music/Stations/Country
(ltp1171
a(VDisco
VVideo Game OST/Electronic Arts/Maxis/The Sims/Music/Stations/Disco
(ltp1172
a(VJazz
VVideo Game OST/Electronic Arts/Maxis/The Sims/Music/Stations/Jazz
(ltp1173
a(VLatin
VVideo Game OST/Electronic Arts/Maxis/The Sims/Music/Stations/Latin
(ltp1174
a(VRap
VVideo Game OST/Electronic Arts/Maxis/The Sims/Music/Stations/Rap
(ltp1175
a(VRave
VVideo Game OST/Electronic Arts/Maxis/The Sims/Music/Stations/Rave
(ltp1176
a(VRock
VVideo Game OST/Electronic Arts/Maxis/The Sims/Music/Stations/Rock
(ltp1177
a(VSuperstar
VVideo Game OST/Electronic Arts/Maxis/The Sims/Music/Stations/Superstar
(ltp1178
a(VUnlCheap
VVideo Game OST/Electronic Arts/Maxis/The Sims/Music/Stations/UnlCheap
(ltp1179
a(VUnlSpeak
VVideo Game OST/Electronic Arts/Maxis/The Sims/Music/Stations/UnlSpeak
(ltp1180
atp1181
atp1182
atp1183
a(VThe Sims - Making Magic
VVideo Game OST/Electronic Arts/Maxis/The Sims - Making Magic
(lp1184
(VBuild
VVideo Game OST/Electronic Arts/Maxis/The Sims - Making Magic/Build
(ltp1185
a(VBuy
VVideo Game OST/Electronic Arts/Maxis/The Sims - Making Magic/Buy
(ltp1186
a(VCredits
VVideo Game OST/Electronic Arts/Maxis/The Sims - Making Magic/Credits
(ltp1187
a(VMakinMagic
VVideo Game OST/Electronic Arts/Maxis/The Sims - Making Magic/MakinMagic
(ltp1188
atp1189
a(VThe Sims - Superstar
VVideo Game OST/Electronic Arts/Maxis/The Sims - Superstar
(ltp1190
a(VThe Sims - Vacation
VVideo Game OST/Electronic Arts/Maxis/The Sims - Vacation
(ltp1191
atp1192
a(VMirror's Edge
VVideo Game OST/Electronic Arts/Mirror's Edge
(lp1193
(VMirror's Edge Game Rip
VVideo Game OST/Electronic Arts/Mirror's Edge/Mirror's Edge Game Rip
(ltp1194
a(VMirror's Edge Remixes
VVideo Game OST/Electronic Arts/Mirror's Edge/Mirror's Edge Remixes
(lp1195
(VBonus Tracks
VVideo Game OST/Electronic Arts/Mirror's Edge/Mirror's Edge Remixes/Bonus Tracks
(ltp1196
a(VRemixes
VVideo Game OST/Electronic Arts/Mirror's Edge/Mirror's Edge Remixes/Remixes
(ltp1197
atp1198
atp1199
a(VWestwood
VVideo Game OST/Electronic Arts/Westwood
(lp1200
(VCommand & Conquer
VVideo Game OST/Electronic Arts/Westwood/Command & Conquer
(ltp1201
a(VCommand & Conquer - Red Alert
VVideo Game OST/Electronic Arts/Westwood/Command & Conquer - Red Alert
(ltp1202
a(VCommand & Conquer - Red Alert 2
VVideo Game OST/Electronic Arts/Westwood/Command & Conquer - Red Alert 2
(ltp1203
a(VCommand & Conquer - Red Alert 2 - Yuris Revenge
VVideo Game OST/Electronic Arts/Westwood/Command & Conquer - Red Alert 2 - Yuris Revenge
(ltp1204
a(VCommand & Conquer - The Covert Operations
VVideo Game OST/Electronic Arts/Westwood/Command & Conquer - The Covert Operations
(ltp1205
a(VCommand & Conquer - Tiberian Sun
VVideo Game OST/Electronic Arts/Westwood/Command & Conquer - Tiberian Sun
(ltp1206
a(VCommand & Conquer - Tiberian Sun - Firestorm
VVideo Game OST/Electronic Arts/Westwood/Command & Conquer - Tiberian Sun - Firestorm
(ltp1207
atp1208
atp1209
a(VHudson
VVideo Game OST/Hudson
(lp1210
(VBomberman 64
VVideo Game OST/Hudson/Bomberman 64
(ltp1211
atp1212
a(VKonami
VVideo Game OST/Konami
(lp1213
(VElebits Soundtrack
VVideo Game OST/Konami/Elebits Soundtrack
(ltp1214
a(VTMNT IV - Turtles in Time
VVideo Game OST/Konami/TMNT IV - Turtles in Time
(ltp1215
a(VTiny Toon Adventures
VVideo Game OST/Konami/Tiny Toon Adventures
(ltp1216
atp1217
a(VLucasArts
VVideo Game OST/LucasArts
(lp1218
(VMonkey Island
VVideo Game OST/LucasArts/Monkey Island
(lp1219
(VCurse Of Monkey Island
VVideo Game OST/LucasArts/Monkey Island/Curse Of Monkey Island
(lp1220
(VCD 1
VVideo Game OST/LucasArts/Monkey Island/Curse Of Monkey Island/CD 1
(ltp1221
a(VCD 2
VVideo Game OST/LucasArts/Monkey Island/Curse Of Monkey Island/CD 2
(ltp1222
atp1223
a(VEscape From Monkey Island
VVideo Game OST/LucasArts/Monkey Island/Escape From Monkey Island
(lp1224
(VCD 1
VVideo Game OST/LucasArts/Monkey Island/Escape From Monkey Island/CD 1
(ltp1225
a(VCD 2
VVideo Game OST/LucasArts/Monkey Island/Escape From Monkey Island/CD 2
(ltp1226
atp1227
atp1228
atp1229
a(VNamco
VVideo Game OST/Namco
(lp1230
(VAce Combat 05 OST
VVideo Game OST/Namco/Ace Combat 05 OST
(lp1231
(VCD 1
VVideo Game OST/Namco/Ace Combat 05 OST/CD 1
(ltp1232
a(VCD 2
VVideo Game OST/Namco/Ace Combat 05 OST/CD 2
(ltp1233
a(VCD 3
VVideo Game OST/Namco/Ace Combat 05 OST/CD 3
(ltp1234
a(VCD 4
VVideo Game OST/Namco/Ace Combat 05 OST/CD 4
(ltp1235
atp1236
a(VKatamari Damacy
VVideo Game OST/Namco/Katamari Damacy
(lp1237
(VBeautiful Katamari
VVideo Game OST/Namco/Katamari Damacy/Beautiful Katamari
(ltp1238
a(VKatamari Damacy Soundtrack ''Katamari Fortissimo Damacy''
VVideo Game OST/Namco/Katamari Damacy/Katamari Damacy Soundtrack ''Katamari Fortissimo Damacy''
(ltp1239
a(VWe Love Katamari
VVideo Game OST/Namco/Katamari Damacy/We Love Katamari
(ltp1240
atp1241
atp1242
a(VNintendo
VVideo Game OST/Nintendo
(lp1243
(VAnimal Crossing
VVideo Game OST/Nintendo/Animal Crossing
(lp1244
(VAnimal Crossing
VVideo Game OST/Nintendo/Animal Crossing/Animal Crossing
(ltp1245
a(VAnimal Crossing - Wild World
VVideo Game OST/Nintendo/Animal Crossing/Animal Crossing - Wild World
(ltp1246
atp1247
a(VBrain Age
VVideo Game OST/Nintendo/Brain Age
(lp1248
(VBig Brain Academy
VVideo Game OST/Nintendo/Brain Age/Big Brain Academy
(ltp1249
a(VBrain Age - Train Your Brain In Minutes A Day
VVideo Game OST/Nintendo/Brain Age/Brain Age - Train Your Brain In Minutes A Day
(ltp1250
atp1251
a(VKirby
VVideo Game OST/Nintendo/Kirby
(lp1252
(VKirby 64 - The Crystal Shards
VVideo Game OST/Nintendo/Kirby/Kirby 64 - The Crystal Shards
(ltp1253
a(VKirby Super Star
VVideo Game OST/Nintendo/Kirby/Kirby Super Star
(ltp1254
a(VKirby's Dream Land Series
VVideo Game OST/Nintendo/Kirby/Kirby's Dream Land Series
(lp1255
(VKirby's Dream Land
VVideo Game OST/Nintendo/Kirby/Kirby's Dream Land Series/Kirby's Dream Land
(ltp1256
a(VKirby's Dream Land 2
VVideo Game OST/Nintendo/Kirby/Kirby's Dream Land Series/Kirby's Dream Land 2
(ltp1257
a(VKirby's Dream Land 3
VVideo Game OST/Nintendo/Kirby/Kirby's Dream Land Series/Kirby's Dream Land 3
(ltp1258
atp1259
atp1260
a(VMario
VVideo Game OST/Nintendo/Mario
(lp1261
(VMario Paint
VVideo Game OST/Nintendo/Mario/Mario Paint
(ltp1262
a(VMario Party Series
VVideo Game OST/Nintendo/Mario/Mario Party Series
(lp1263
(VMario Party 1
VVideo Game OST/Nintendo/Mario/Mario Party Series/Mario Party 1
(ltp1264
a(VMario Party 2
VVideo Game OST/Nintendo/Mario/Mario Party Series/Mario Party 2
(ltp1265
a(VMario Party 3
VVideo Game OST/Nintendo/Mario/Mario Party Series/Mario Party 3
(ltp1266
a(VMario Party 4
VVideo Game OST/Nintendo/Mario/Mario Party Series/Mario Party 4
(ltp1267
a(VMario Party 5
VVideo Game OST/Nintendo/Mario/Mario Party Series/Mario Party 5
(ltp1268
a(VMario Party 6
VVideo Game OST/Nintendo/Mario/Mario Party Series/Mario Party 6
(ltp1269
atp1270
a(VNew Super Mario Bros
VVideo Game OST/Nintendo/Mario/New Super Mario Bros
(ltp1271
a(VPaper Mario Series
VVideo Game OST/Nintendo/Mario/Paper Mario Series
(lp1272
(VPaper Mario
VVideo Game OST/Nintendo/Mario/Paper Mario Series/Paper Mario
(ltp1273
a(VPaper Mario - The Thousand Year Door
VVideo Game OST/Nintendo/Mario/Paper Mario Series/Paper Mario - The Thousand Year Door
(ltp1274
a(VSuper Paper Mario
VVideo Game OST/Nintendo/Mario/Paper Mario Series/Super Paper Mario
(ltp1275
atp1276
a(VSuper Mario 64
VVideo Game OST/Nintendo/Mario/Super Mario 64
(ltp1277
a(VSuper Mario 64 DS
VVideo Game OST/Nintendo/Mario/Super Mario 64 DS
(ltp1278
a(VSuper Mario All-Stars
VVideo Game OST/Nintendo/Mario/Super Mario All-Stars
(ltp1279
a(VSuper Mario Bros. Series
VVideo Game OST/Nintendo/Mario/Super Mario Bros. Series
(lp1280
(VSuper Mario Bros
VVideo Game OST/Nintendo/Mario/Super Mario Bros. Series/Super Mario Bros
(ltp1281
a(VSuper Mario Bros (All-Stars)
VVideo Game OST/Nintendo/Mario/Super Mario Bros. Series/Super Mario Bros (All-Stars)
(ltp1282
a(VSuper Mario Bros. 2
VVideo Game OST/Nintendo/Mario/Super Mario Bros. Series/Super Mario Bros. 2
(ltp1283
a(VSuper Mario Bros. 2 (All-Stars)
VVideo Game OST/Nintendo/Mario/Super Mario Bros. Series/Super Mario Bros. 2 (All-Stars)
(ltp1284
a(VSuper Mario Bros. 3
VVideo Game OST/Nintendo/Mario/Super Mario Bros. Series/Super Mario Bros. 3
(ltp1285
a(VSuper Mario Bros. 3 (All-Stars)
VVideo Game OST/Nintendo/Mario/Super Mario Bros. Series/Super Mario Bros. 3 (All-Stars)
(ltp1286
atp1287
a(VSuper Mario Galaxy
VVideo Game OST/Nintendo/Mario/Super Mario Galaxy
(lp1288
(VCD 1
VVideo Game OST/Nintendo/Mario/Super Mario Galaxy/CD 1
(ltp1289
a(VCD 2
VVideo Game OST/Nintendo/Mario/Super Mario Galaxy/CD 2
(ltp1290
atp1291
a(VSuper Mario Kart Series
VVideo Game OST/Nintendo/Mario/Super Mario Kart Series
(lp1292
(VMario Kart - Double Dash
VVideo Game OST/Nintendo/Mario/Super Mario Kart Series/Mario Kart - Double Dash
(ltp1293
a(VMario Kart 64
VVideo Game OST/Nintendo/Mario/Super Mario Kart Series/Mario Kart 64
(ltp1294
a(VMario Kart DS
VVideo Game OST/Nintendo/Mario/Super Mario Kart Series/Mario Kart DS
(ltp1295
a(VMario Kart Wii
VVideo Game OST/Nintendo/Mario/Super Mario Kart Series/Mario Kart Wii
(lp1296
(VDisc 1
VVideo Game OST/Nintendo/Mario/Super Mario Kart Series/Mario Kart Wii/Disc 1
(ltp1297
a(VDisc 2
VVideo Game OST/Nintendo/Mario/Super Mario Kart Series/Mario Kart Wii/Disc 2
(ltp1298
a(VDisc 3
VVideo Game OST/Nintendo/Mario/Super Mario Kart Series/Mario Kart Wii/Disc 3
(ltp1299
atp1300
a(VSuper Mario Kart
VVideo Game OST/Nintendo/Mario/Super Mario Kart Series/Super Mario Kart
(ltp1301
atp1302
a(VSuper Mario RPG - The Legend of the Seven Stars
VVideo Game OST/Nintendo/Mario/Super Mario RPG - The Legend of the Seven Stars
(ltp1303
a(VSuper Mario Sunshine
VVideo Game OST/Nintendo/Mario/Super Mario Sunshine
(ltp1304
a(VSuper Mario World Series
VVideo Game OST/Nintendo/Mario/Super Mario World Series
(lp1305
(VSuper Mario World
VVideo Game OST/Nintendo/Mario/Super Mario World Series/Super Mario World
(ltp1306
a(VSuper Mario World 2 - Yoshi's Island
VVideo Game OST/Nintendo/Mario/Super Mario World Series/Super Mario World 2 - Yoshi's Island
(ltp1307
a(VSuper Mario World Orchestrations
VVideo Game OST/Nintendo/Mario/Super Mario World Series/Super Mario World Orchestrations
(ltp1308
atp1309
atp1310
a(VMetroid
VVideo Game OST/Nintendo/Metroid
(lp1311
(VMetroid
VVideo Game OST/Nintendo/Metroid/Metroid
(ltp1312
a(VMetroid II - Return of Samus
VVideo Game OST/Nintendo/Metroid/Metroid II - Return of Samus
(ltp1313
a(VMetroid Prime Series
VVideo Game OST/Nintendo/Metroid/Metroid Prime Series
(lp1314
(VMetroid Prime
VVideo Game OST/Nintendo/Metroid/Metroid Prime Series/Metroid Prime
(ltp1315
a(VMetroid Prime 2 - Echoes
VVideo Game OST/Nintendo/Metroid/Metroid Prime Series/Metroid Prime 2 - Echoes
(ltp1316
a(VMetroid Prime 3 - Corruption
VVideo Game OST/Nintendo/Metroid/Metroid Prime Series/Metroid Prime 3 - Corruption
(ltp1317
a(VMetroid Prime Hunters
VVideo Game OST/Nintendo/Metroid/Metroid Prime Series/Metroid Prime Hunters
(ltp1318
atp1319
a(VSuper Metroid
VVideo Game OST/Nintendo/Metroid/Super Metroid
(ltp1320
atp1321
a(VMother (Earthbound)
VVideo Game OST/Nintendo/Mother (Earthbound)
(lp1322
(VMother
VVideo Game OST/Nintendo/Mother (Earthbound)/Mother
(ltp1323
a(VMother 2 - Gigyas Strikes Back
VVideo Game OST/Nintendo/Mother (Earthbound)/Mother 2 - Gigyas Strikes Back
(ltp1324
a(VMother 3
VVideo Game OST/Nintendo/Mother (Earthbound)/Mother 3
(ltp1325
atp1326
a(VOthers
VVideo Game OST/Nintendo/Others
(lp1327
(VPilotwings 64
VVideo Game OST/Nintendo/Others/Pilotwings 64
(ltp1328
a(VWave Race 64
VVideo Game OST/Nintendo/Others/Wave Race 64
(ltp1329
a(VWii Console Sounds
VVideo Game OST/Nintendo/Others/Wii Console Sounds
(lp1330
(VEveryone Votes Channel
VVideo Game OST/Nintendo/Others/Wii Console Sounds/Everyone Votes Channel
(ltp1331
a(VInternet Channel
VVideo Game OST/Nintendo/Others/Wii Console Sounds/Internet Channel
(ltp1332
a(VMii Creator
VVideo Game OST/Nintendo/Others/Wii Console Sounds/Mii Creator
(ltp1333
a(VMisc
VVideo Game OST/Nintendo/Others/Wii Console Sounds/Misc
(ltp1334
a(VNews Channel
VVideo Game OST/Nintendo/Others/Wii Console Sounds/News Channel
(ltp1335
a(VNintendo Wii Channel System
VVideo Game OST/Nintendo/Others/Wii Console Sounds/Nintendo Wii Channel System
(ltp1336
a(VPhoto Channel
VVideo Game OST/Nintendo/Others/Wii Console Sounds/Photo Channel
(ltp1337
a(VShop Channel
VVideo Game OST/Nintendo/Others/Wii Console Sounds/Shop Channel
(ltp1338
a(VWeather Channel
VVideo Game OST/Nintendo/Others/Wii Console Sounds/Weather Channel
(ltp1339
atp1340
a(VWii Sports
VVideo Game OST/Nintendo/Others/Wii Sports
(ltp1341
atp1342
a(VSmash Bros
VVideo Game OST/Nintendo/Smash Bros
(lp1343
(VSuper Smash Bros
VVideo Game OST/Nintendo/Smash Bros/Super Smash Bros
(ltp1344
a(VSuper Smash Bros. Brawl
VVideo Game OST/Nintendo/Smash Bros/Super Smash Bros. Brawl
(lp1345
(VDisc A ~ Super Mario Bros
VVideo Game OST/Nintendo/Smash Bros/Super Smash Bros. Brawl/Disc A ~ Super Mario Bros
(ltp1346
a(VDisc B ~ Donkey Kong
VVideo Game OST/Nintendo/Smash Bros/Super Smash Bros. Brawl/Disc B ~ Donkey Kong
(ltp1347
a(VDisc C ~ The Legend of Zelda
VVideo Game OST/Nintendo/Smash Bros/Super Smash Bros. Brawl/Disc C ~ The Legend of Zelda
(ltp1348
a(VDisc D ~ Metroid
VVideo Game OST/Nintendo/Smash Bros/Super Smash Bros. Brawl/Disc D ~ Metroid
(ltp1349
a(VDisc E ~ Yoshi
VVideo Game OST/Nintendo/Smash Bros/Super Smash Bros. Brawl/Disc E ~ Yoshi
(ltp1350
a(VDisc F ~ Kirby
VVideo Game OST/Nintendo/Smash Bros/Super Smash Bros. Brawl/Disc F ~ Kirby
(ltp1351
a(VDisc G ~ Star Fox
VVideo Game OST/Nintendo/Smash Bros/Super Smash Bros. Brawl/Disc G ~ Star Fox
(ltp1352
a(VDisc H ~ Pokmon
VVideo Game OST/Nintendo/Smash Bros/Super Smash Bros. Brawl/Disc H ~ Pokmon
(ltp1353
a(VDisc I ~ F-Zero
VVideo Game OST/Nintendo/Smash Bros/Super Smash Bros. Brawl/Disc I ~ F-Zero
(ltp1354
a(VDisc J ~ Fire Emblem
VVideo Game OST/Nintendo/Smash Bros/Super Smash Bros. Brawl/Disc J ~ Fire Emblem
(ltp1355
a(VDisc K ~ Mother
VVideo Game OST/Nintendo/Smash Bros/Super Smash Bros. Brawl/Disc K ~ Mother
(ltp1356
a(VDisc L ~ Pikmin
VVideo Game OST/Nintendo/Smash Bros/Super Smash Bros. Brawl/Disc L ~ Pikmin
(ltp1357
a(VDisc M ~ WarioWare
VVideo Game OST/Nintendo/Smash Bros/Super Smash Bros. Brawl/Disc M ~ WarioWare
(ltp1358
a(VDisc N ~ Animal Crossing
VVideo Game OST/Nintendo/Smash Bros/Super Smash Bros. Brawl/Disc N ~ Animal Crossing
(ltp1359
a(VDisc P ~ Kid Icarus
VVideo Game OST/Nintendo/Smash Bros/Super Smash Bros. Brawl/Disc P ~ Kid Icarus
(ltp1360
a(VDisc Q ~ NES Classics
VVideo Game OST/Nintendo/Smash Bros/Super Smash Bros. Brawl/Disc Q ~ NES Classics
(ltp1361
a(VDisc R ~ Nintendo DS, Wii & Various Other Games
VVideo Game OST/Nintendo/Smash Bros/Super Smash Bros. Brawl/Disc R ~ Nintendo DS, Wii & Various Other Games
(ltp1362
a(VDisc S ~ Metal Gear
VVideo Game OST/Nintendo/Smash Bros/Super Smash Bros. Brawl/Disc S ~ Metal Gear
(ltp1363
a(VDisc T ~ Super Smash Bros. Melee Originals
VVideo Game OST/Nintendo/Smash Bros/Super Smash Bros. Brawl/Disc T ~ Super Smash Bros. Melee Originals
(ltp1364
a(VDisc U ~ Sonic the Hedgehog
VVideo Game OST/Nintendo/Smash Bros/Super Smash Bros. Brawl/Disc U ~ Sonic the Hedgehog
(ltp1365
a(VDisc W ~ Super Smash Bros. Melee Level Themes
VVideo Game OST/Nintendo/Smash Bros/Super Smash Bros. Brawl/Disc W ~ Super Smash Bros. Melee Level Themes
(ltp1366
a(VDisc X ~ Super Smash Bros. Brawl General Themes
VVideo Game OST/Nintendo/Smash Bros/Super Smash Bros. Brawl/Disc X ~ Super Smash Bros. Brawl General Themes
(ltp1367
a(VDisc Y ~ Subspace Emissary
VVideo Game OST/Nintendo/Smash Bros/Super Smash Bros. Brawl/Disc Y ~ Subspace Emissary
(ltp1368
a(VDisc Z ~ Victory Themes and Jingles
VVideo Game OST/Nintendo/Smash Bros/Super Smash Bros. Brawl/Disc Z ~ Victory Themes and Jingles
(ltp1369
atp1370
a(VSuper Smash Bros. Melee
VVideo Game OST/Nintendo/Smash Bros/Super Smash Bros. Melee
(lp1371
(VOrchestrations
VVideo Game OST/Nintendo/Smash Bros/Super Smash Bros. Melee/Orchestrations
(ltp1372
a(VOriginal Soundtrack
VVideo Game OST/Nintendo/Smash Bros/Super Smash Bros. Melee/Original Soundtrack
(ltp1373
atp1374
atp1375
a(VStar Fox
VVideo Game OST/Nintendo/Star Fox
(lp1376
(VStar Fox
VVideo Game OST/Nintendo/Star Fox/Star Fox
(ltp1377
a(VStar Fox 2 (Beta)
VVideo Game OST/Nintendo/Star Fox/Star Fox 2 (Beta)
(ltp1378
a(VStar Fox 64
VVideo Game OST/Nintendo/Star Fox/Star Fox 64
(ltp1379
atp1380
a(VThe Legend of Zelda
VVideo Game OST/Nintendo/The Legend of Zelda
(lp1381
(VThe Legend Of Zelda - A Link To The Past
VVideo Game OST/Nintendo/The Legend of Zelda/The Legend Of Zelda - A Link To The Past
(ltp1382
a(VThe Legend Of Zelda - Hyrule Symphony
VVideo Game OST/Nintendo/The Legend of Zelda/The Legend Of Zelda - Hyrule Symphony
(ltp1383
a(VThe Legend Of Zelda - Link's Awakening
VVideo Game OST/Nintendo/The Legend of Zelda/The Legend Of Zelda - Link's Awakening
(ltp1384
a(VThe Legend Of Zelda - Majora's Mask
VVideo Game OST/Nintendo/The Legend of Zelda/The Legend Of Zelda - Majora's Mask
(ltp1385
a(VThe Legend Of Zelda - Majora's Mask - Orchestrations
VVideo Game OST/Nintendo/The Legend of Zelda/The Legend Of Zelda - Majora's Mask - Orchestrations
(ltp1386
a(VThe Legend Of Zelda - Ocarina Of Time
VVideo Game OST/Nintendo/The Legend of Zelda/The Legend Of Zelda - Ocarina Of Time
(ltp1387
a(VThe Legend Of Zelda - Phantom Hourglass
VVideo Game OST/Nintendo/The Legend of Zelda/The Legend Of Zelda - Phantom Hourglass
(ltp1388
a(VThe Legend Of Zelda - Sound & Drama
VVideo Game OST/Nintendo/The Legend of Zelda/The Legend Of Zelda - Sound & Drama
(ltp1389
a(VThe Legend Of Zelda - The Adventure Of Link
VVideo Game OST/Nintendo/The Legend of Zelda/The Legend Of Zelda - The Adventure Of Link
(ltp1390
a(VThe Legend Of Zelda - The Legend Of Zelda
VVideo Game OST/Nintendo/The Legend of Zelda/The Legend Of Zelda - The Legend Of Zelda
(ltp1391
a(VThe Legend Of Zelda - The Wind Waker
VVideo Game OST/Nintendo/The Legend of Zelda/The Legend Of Zelda - The Wind Waker
(ltp1392
a(VThe Legend Of Zelda - Twilight Princess
VVideo Game OST/Nintendo/The Legend of Zelda/The Legend Of Zelda - Twilight Princess
(ltp1393
atp1394
a(VWarioWare
VVideo Game OST/Nintendo/WarioWare
(lp1395
(VWarioWare - Mega Microgame$
VVideo Game OST/Nintendo/WarioWare/WarioWare - Mega Microgame$
(ltp1396
a(VWarioWare - Mega Party Game$
VVideo Game OST/Nintendo/WarioWare/WarioWare - Mega Party Game$
(ltp1397
a(VWarioWare - Smooth Moves
VVideo Game OST/Nintendo/WarioWare/WarioWare - Smooth Moves
(ltp1398
a(VWarioWare - Touched!
VVideo Game OST/Nintendo/WarioWare/WarioWare - Touched!
(ltp1399
a(VWarioWare - Twisted!
VVideo Game OST/Nintendo/WarioWare/WarioWare - Twisted!
(ltp1400
atp1401
a(VYoshi
VVideo Game OST/Nintendo/Yoshi
(lp1402
(VYoshi Touch & Go
VVideo Game OST/Nintendo/Yoshi/Yoshi Touch & Go
(ltp1403
a(VYoshi's Story
VVideo Game OST/Nintendo/Yoshi/Yoshi's Story
(ltp1404
atp1405
atp1406
a(VNumber None
VVideo Game OST/Number None
(lp1407
(VBraid
VVideo Game OST/Number None/Braid
(ltp1408
atp1409
a(VRare
VVideo Game OST/Rare
(lp1410
(VBanjo
VVideo Game OST/Rare/Banjo
(lp1411
(VBanjo-Kazooie
VVideo Game OST/Rare/Banjo/Banjo-Kazooie
(ltp1412
a(VBanjo-Tooie
VVideo Game OST/Rare/Banjo/Banjo-Tooie
(ltp1413
atp1414
a(VBlast Corps
VVideo Game OST/Rare/Blast Corps
(ltp1415
a(VConker's Bad Fur Day
VVideo Game OST/Rare/Conker's Bad Fur Day
(ltp1416
a(VDonkey Kong
VVideo Game OST/Rare/Donkey Kong
(lp1417
(VDiddy Kong Racing
VVideo Game OST/Rare/Donkey Kong/Diddy Kong Racing
(ltp1418
a(VDonkey Kong 64
VVideo Game OST/Rare/Donkey Kong/Donkey Kong 64
(ltp1419
a(VDonkey Kong Country Series
VVideo Game OST/Rare/Donkey Kong/Donkey Kong Country Series
(lp1420
(VDonkey Kong Country
VVideo Game OST/Rare/Donkey Kong/Donkey Kong Country Series/Donkey Kong Country
(ltp1421
a(VDonkey Kong Country 2 - Diddy Kong's Quest
VVideo Game OST/Rare/Donkey Kong/Donkey Kong Country Series/Donkey Kong Country 2 - Diddy Kong's Quest
(ltp1422
a(VDonkey Kong Country 3 - Dixie Kong's Double Trouble
VVideo Game OST/Rare/Donkey Kong/Donkey Kong Country Series/Donkey Kong Country 3 - Dixie Kong's Double Trouble
(ltp1423
atp1424
a(VDonkey Kong Land Series
VVideo Game OST/Rare/Donkey Kong/Donkey Kong Land Series
(lp1425
(VDonkey Kong Land
VVideo Game OST/Rare/Donkey Kong/Donkey Kong Land Series/Donkey Kong Land
(ltp1426
atp1427
atp1428
a(VGoldeneye 007
VVideo Game OST/Rare/Goldeneye 007
(ltp1429
a(VPerfect Dark
VVideo Game OST/Rare/Perfect Dark
(lp1430
(VCD 1
VVideo Game OST/Rare/Perfect Dark/CD 1
(ltp1431
a(VCD 2
VVideo Game OST/Rare/Perfect Dark/CD 2
(ltp1432
atp1433
atp1434
a(VRockstar (DMA Design)
VVideo Game OST/Rockstar (DMA Design)
(lp1435
(VSpace Station Silicon Valley
VVideo Game OST/Rockstar (DMA Design)/Space Station Silicon Valley
(ltp1436
atp1437
a(VSEGA
VVideo Game OST/SEGA
(lp1438
(VJet Set Radio
VVideo Game OST/SEGA/Jet Set Radio
(ltp1439
a(VSuper Monkey Ball
VVideo Game OST/SEGA/Super Monkey Ball
(lp1440
(VSuper Monkey Ball
VVideo Game OST/SEGA/Super Monkey Ball/Super Monkey Ball
(ltp1441
a(VSuper Monkey Ball - Banana Blitz
VVideo Game OST/SEGA/Super Monkey Ball/Super Monkey Ball - Banana Blitz
(ltp1442
a(VSuper Monkey Ball 2
VVideo Game OST/SEGA/Super Monkey Ball/Super Monkey Ball 2
(ltp1443
atp1444
atp1445
a(VSoftnyx
VVideo Game OST/Softnyx
(lp1446
(VGunbound
VVideo Game OST/Softnyx/Gunbound
(ltp1447
atp1448
a(VSquare Enix
VVideo Game OST/Square Enix
(lp1449
(VFinal Fantasy
VVideo Game OST/Square Enix/Final Fantasy
(lp1450
(VCompilation Albums
VVideo Game OST/Square Enix/Final Fantasy/Compilation Albums
(lp1451
(V1987-1994
VVideo Game OST/Square Enix/Final Fantasy/Compilation Albums/1987-1994
(ltp1452
a(V1994-1999
VVideo Game OST/Square Enix/Final Fantasy/Compilation Albums/1994-1999
(ltp1453
atp1454
a(VCovers & Scans
VVideo Game OST/Square Enix/Final Fantasy/Covers & Scans
(ltp1455
a(VFinal Fantasy - The Spirits Within OST
VVideo Game OST/Square Enix/Final Fantasy/Final Fantasy - The Spirits Within OST
(ltp1456
a(VFinal Fantasy Crystal Chronicals
VVideo Game OST/Square Enix/Final Fantasy/Final Fantasy Crystal Chronicals
(lp1457
(VOST
VVideo Game OST/Square Enix/Final Fantasy/Final Fantasy Crystal Chronicals/OST
(lp1458
(VCD 1
VVideo Game OST/Square Enix/Final Fantasy/Final Fantasy Crystal Chronicals/OST/CD 1
(ltp1459
a(VCD 2
VVideo Game OST/Square Enix/Final Fantasy/Final Fantasy Crystal Chronicals/OST/CD 2
(ltp1460
atp1461
atp1462
a(VFinal Fantasy I & II
VVideo Game OST/Square Enix/Final Fantasy/Final Fantasy I & II
(lp1463
(VAll Sounds
VVideo Game OST/Square Enix/Final Fantasy/Final Fantasy I & II/All Sounds
(ltp1464
a(VOST
VVideo Game OST/Square Enix/Final Fantasy/Final Fantasy I & II/OST
(ltp1465
a(VWonderswan Color
VVideo Game OST/Square Enix/Final Fantasy/Final Fantasy I & II/Wonderswan Color
(ltp1466
atp1467
a(VFinal Fantasy III
VVideo Game OST/Square Enix/Final Fantasy/Final Fantasy III
(lp1468
(VLegend of Eternal Wind
VVideo Game OST/Square Enix/Final Fantasy/Final Fantasy III/Legend of Eternal Wind
(ltp1469
a(VOST
VVideo Game OST/Square Enix/Final Fantasy/Final Fantasy III/OST
(ltp1470
atp1471
a(VFinal Fantasy IV
VVideo Game OST/Square Enix/Final Fantasy/Final Fantasy IV
(lp1472
(VCeltic Moon
VVideo Game OST/Square Enix/Final Fantasy/Final Fantasy IV/Celtic Moon
(ltp1473
a(VExtras
VVideo Game OST/Square Enix/Final Fantasy/Final Fantasy IV/Extras
(ltp1474
a(VOST
VVideo Game OST/Square Enix/Final Fantasy/Final Fantasy IV/OST
(ltp1475
a(VPiano Instrumentals
VVideo Game OST/Square Enix/Final Fantasy/Final Fantasy IV/Piano Instrumentals
(ltp1476
atp1477
a(VFinal Fantasy IX
VVideo Game OST/Square Enix/Final Fantasy/Final Fantasy IX
(lp1478
(VMelodies of Life (Single)
VVideo Game OST/Square Enix/Final Fantasy/Final Fantasy IX/Melodies of Life (Single)
(ltp1479
a(VOST
VVideo Game OST/Square Enix/Final Fantasy/Final Fantasy IX/OST
(lp1480
(VCD 1
VVideo Game OST/Square Enix/Final Fantasy/Final Fantasy IX/OST/CD 1
(ltp1481
a(VCD 2
VVideo Game OST/Square Enix/Final Fantasy/Final Fantasy IX/OST/CD 2
(ltp1482
a(VCD 3
VVideo Game OST/Square Enix/Final Fantasy/Final Fantasy IX/OST/CD 3
(ltp1483
a(VCD 4
VVideo Game OST/Square Enix/Final Fantasy/Final Fantasy IX/OST/CD 4
(ltp1484
atp1485
a(VPiano Collection
VVideo Game OST/Square Enix/Final Fantasy/Final Fantasy IX/Piano Collection
(ltp1486
a(VPlus
VVideo Game OST/Square Enix/Final Fantasy/Final Fantasy IX/Plus
(ltp1487
a(VUematsu's Best Selection
VVideo Game OST/Square Enix/Final Fantasy/Final Fantasy IX/Uematsu's Best Selection
(ltp1488
atp1489
a(VFinal Fantasy Tactics
VVideo Game OST/Square Enix/Final Fantasy/Final Fantasy Tactics
(lp1490
(VOST
VVideo Game OST/Square Enix/Final Fantasy/Final Fantasy Tactics/OST
(lp1491
(VCD 1
VVideo Game OST/Square Enix/Final Fantasy/Final Fantasy Tactics/OST/CD 1
(ltp1492
a(VCD 2
VVideo Game OST/Square Enix/Final Fantasy/Final Fantasy Tactics/OST/CD 2
(ltp1493
atp1494
a(VThe Diaries of Olan
VVideo Game OST/Square Enix/Final Fantasy/Final Fantasy Tactics/The Diaries of Olan
(ltp1495
a(VUnreleased Tracks
VVideo Game OST/Square Enix/Final Fantasy/Final Fantasy Tactics/Unreleased Tracks
(ltp1496
atp1497
a(VFinal Fantasy Tactics Advance
VVideo Game OST/Square Enix/Final Fantasy/Final Fantasy Tactics Advance
(lp1498
(VOST
VVideo Game OST/Square Enix/Final Fantasy/Final Fantasy Tactics Advance/OST
(lp1499
(VCD 1
VVideo Game OST/Square Enix/Final Fantasy/Final Fantasy Tactics Advance/OST/CD 1
(ltp1500
a(VCD 2
VVideo Game OST/Square Enix/Final Fantasy/Final Fantasy Tactics Advance/OST/CD 2
(ltp1501
atp1502
a(VWhite Melodies
VVideo Game OST/Square Enix/Final Fantasy/Final Fantasy Tactics Advance/White Melodies
(ltp1503
atp1504
a(VFinal Fantasy Unlimited
VVideo Game OST/Square Enix/Final Fantasy/Final Fantasy Unlimited
(lp1505
(VOST
VVideo Game OST/Square Enix/Final Fantasy/Final Fantasy Unlimited/OST
(lp1506
(VCD 1
VVideo Game OST/Square Enix/Final Fantasy/Final Fantasy Unlimited/OST/CD 1
(ltp1507
a(VCD 2
VVideo Game OST/Square Enix/Final Fantasy/Final Fantasy Unlimited/OST/CD 2
(ltp1508
atp1509
atp1510
a(VFinal Fantasy V
VVideo Game OST/Square Enix/Final Fantasy/Final Fantasy V
(lp1511
(VAnime - Dragon & Star
VVideo Game OST/Square Enix/Final Fantasy/Final Fantasy V/Anime - Dragon & Star
(ltp1512
a(VAnime - Wind & Fire
VVideo Game OST/Square Enix/Final Fantasy/Final Fantasy V/Anime - Wind & Fire
(ltp1513
a(VDear Friends
VVideo Game OST/Square Enix/Final Fantasy/Final Fantasy V/Dear Friends
(ltp1514
a(VOST
VVideo Game OST/Square Enix/Final Fantasy/Final Fantasy V/OST
(lp1515
(VCD 1
VVideo Game OST/Square Enix/Final Fantasy/Final Fantasy V/OST/CD 1
(ltp1516
a(VCD 2
VVideo Game OST/Square Enix/Final Fantasy/Final Fantasy V/OST/CD 2
(ltp1517
atp1518
a(VPiano Instrumentals
VVideo Game OST/Square Enix/Final Fantasy/Final Fantasy V/Piano Instrumentals
(ltp1519
atp1520
a(VFinal Fantasy VI
VVideo Game OST/Square Enix/Final Fantasy/Final Fantasy VI
(lp1521
(VExtras
VVideo Game OST/Square Enix/Final Fantasy/Final Fantasy VI/Extras
(ltp1522
a(VGrand Edition
VVideo Game OST/Square Enix/Final Fantasy/Final Fantasy VI/Grand Edition
(ltp1523
a(VOST
VVideo Game OST/Square Enix/Final Fantasy/Final Fantasy VI/OST
(lp1524
(VCD 1
VVideo Game OST/Square Enix/Final Fantasy/Final Fantasy VI/OST/CD 1
(ltp1525
a(VCD 2
VVideo Game OST/Square Enix/Final Fantasy/Final Fantasy VI/OST/CD 2
(ltp1526
a(VCD 3
VVideo Game OST/Square Enix/Final Fantasy/Final Fantasy VI/OST/CD 3
(ltp1527
atp1528
a(VPiano Instrumentals
VVideo Game OST/Square Enix/Final Fantasy/Final Fantasy VI/Piano Instrumentals
(ltp1529
a(VStars
VVideo Game OST/Square Enix/Final Fantasy/Final Fantasy VI/Stars
(lp1530
(VDisc 1
VVideo Game OST/Square Enix/Final Fantasy/Final Fantasy VI/Stars/Disc 1
(ltp1531
a(VDisc 2
VVideo Game OST/Square Enix/Final Fantasy/Final Fantasy VI/Stars/Disc 2
(ltp1532
atp1533
atp1534
a(VFinal Fantasy VII
VVideo Game OST/Square Enix/Final Fantasy/Final Fantasy VII
(lp1535
(VPiano Instrumentals
VVideo Game OST/Square Enix/Final Fantasy/Final Fantasy VII/Piano Instrumentals
(ltp1536
a(VReunion
VVideo Game OST/Square Enix/Final Fantasy/Final Fantasy VII/Reunion
(ltp1537
atp1538
a(VFinal Fantasy VIII
VVideo Game OST/Square Enix/Final Fantasy/Final Fantasy VIII
(lp1539
(VEyes On Me (Single)
VVideo Game OST/Square Enix/Final Fantasy/Final Fantasy VIII/Eyes On Me (Single)
(ltp1540
a(VOST
VVideo Game OST/Square Enix/Final Fantasy/Final Fantasy VIII/OST
(lp1541
(VCD 1
VVideo Game OST/Square Enix/Final Fantasy/Final Fantasy VIII/OST/CD 1
(ltp1542
a(VCD 2
VVideo Game OST/Square Enix/Final Fantasy/Final Fantasy VIII/OST/CD 2
(ltp1543
a(VCD 3
VVideo Game OST/Square Enix/Final Fantasy/Final Fantasy VIII/OST/CD 3
(ltp1544
a(VCD 4
VVideo Game OST/Square Enix/Final Fantasy/Final Fantasy VIII/OST/CD 4
(ltp1545
atp1546
a(VOrchestrations
VVideo Game OST/Square Enix/Final Fantasy/Final Fantasy VIII/Orchestrations
(ltp1547
a(VPiano Instrumentals
VVideo Game OST/Square Enix/Final Fantasy/Final Fantasy VIII/Piano Instrumentals
(ltp1548
atp1549
a(VFinal Fantasy X
VVideo Game OST/Square Enix/Final Fantasy/Final Fantasy X
(lp1550
(VOST
VVideo Game OST/Square Enix/Final Fantasy/Final Fantasy X/OST
(lp1551
(VCD 1
VVideo Game OST/Square Enix/Final Fantasy/Final Fantasy X/OST/CD 1
(ltp1552
a(VCD 2
VVideo Game OST/Square Enix/Final Fantasy/Final Fantasy X/OST/CD 2
(ltp1553
a(VCD 3
VVideo Game OST/Square Enix/Final Fantasy/Final Fantasy X/OST/CD 3
(ltp1554
a(VCD 4
VVideo Game OST/Square Enix/Final Fantasy/Final Fantasy X/OST/CD 4
(ltp1555
atp1556
a(VPiano Collection
VVideo Game OST/Square Enix/Final Fantasy/Final Fantasy X/Piano Collection
(ltp1557
a(VSuteki Da Ne (Single)
VVideo Game OST/Square Enix/Final Fantasy/Final Fantasy X/Suteki Da Ne (Single)
(ltp1558
a(VVocal Collection
VVideo Game OST/Square Enix/Final Fantasy/Final Fantasy X/Vocal Collection
(ltp1559
a(VYuna & Tidus Tribute
VVideo Game OST/Square Enix/Final Fantasy/Final Fantasy X/Yuna & Tidus Tribute
(ltp1560
atp1561
a(VFinal Fantasy X-2
VVideo Game OST/Square Enix/Final Fantasy/Final Fantasy X-2
(lp1562
(VCome With Me (Single)
VVideo Game OST/Square Enix/Final Fantasy/Final Fantasy X-2/Come With Me (Single)
(ltp1563
a(VEternity - Memory of Lightwaves
VVideo Game OST/Square Enix/Final Fantasy/Final Fantasy X-2/Eternity - Memory of Lightwaves
(ltp1564
a(VOST
VVideo Game OST/Square Enix/Final Fantasy/Final Fantasy X-2/OST
(lp1565
(VCD 1
VVideo Game OST/Square Enix/Final Fantasy/Final Fantasy X-2/OST/CD 1
(ltp1566
a(VCD 2
VVideo Game OST/Square Enix/Final Fantasy/Final Fantasy X-2/OST/CD 2
(ltp1567
atp1568
a(VPiano Instrumentals
VVideo Game OST/Square Enix/Final Fantasy/Final Fantasy X-2/Piano Instrumentals
(ltp1569
a(VVocal Collection
VVideo Game OST/Square Enix/Final Fantasy/Final Fantasy X-2/Vocal Collection
(lp1570
(VPaine
VVideo Game OST/Square Enix/Final Fantasy/Final Fantasy X-2/Vocal Collection/Paine
(ltp1571
a(VRikku
VVideo Game OST/Square Enix/Final Fantasy/Final Fantasy X-2/Vocal Collection/Rikku
(ltp1572
a(VYuna
VVideo Game OST/Square Enix/Final Fantasy/Final Fantasy X-2/Vocal Collection/Yuna
(ltp1573
atp1574
atp1575
a(VFinal Fantasy XI
VVideo Game OST/Square Enix/Final Fantasy/Final Fantasy XI
(lp1576
(VOST
VVideo Game OST/Square Enix/Final Fantasy/Final Fantasy XI/OST
(lp1577
(VCD 1
VVideo Game OST/Square Enix/Final Fantasy/Final Fantasy XI/OST/CD 1
(ltp1578
a(VCD 2
VVideo Game OST/Square Enix/Final Fantasy/Final Fantasy XI/OST/CD 2
(ltp1579
atp1580
a(VVision of Zilart
VVideo Game OST/Square Enix/Final Fantasy/Final Fantasy XI/Vision of Zilart
(ltp1581
atp1582
a(VFinal Fantasy XII
VVideo Game OST/Square Enix/Final Fantasy/Final Fantasy XII
(lp1583
(VOST
VVideo Game OST/Square Enix/Final Fantasy/Final Fantasy XII/OST
(ltp1584
atp1585
a(VLive Performances
VVideo Game OST/Square Enix/Final Fantasy/Live Performances
(lp1586
(V2002.20.02 Concert Audience Recording
VVideo Game OST/Square Enix/Final Fantasy/Live Performances/2002.20.02 Concert Audience Recording
(ltp1587
a(V2002.20.02 Official
VVideo Game OST/Square Enix/Final Fantasy/Live Performances/2002.20.02 Official
(lp1588
(VCD 1
VVideo Game OST/Square Enix/Final Fantasy/Live Performances/2002.20.02 Official/CD 1
(ltp1589
a(VCD 2
VVideo Game OST/Square Enix/Final Fantasy/Live Performances/2002.20.02 Official/CD 2
(ltp1590
atp1591
atp1592
a(VRemixes
VVideo Game OST/Square Enix/Final Fantasy/Remixes
(lp1593
(VMajestic Mix
VVideo Game OST/Square Enix/Final Fantasy/Remixes/Majestic Mix
(lp1594
(VCD 1
VVideo Game OST/Square Enix/Final Fantasy/Remixes/Majestic Mix/CD 1
(ltp1595
a(VCD 2
VVideo Game OST/Square Enix/Final Fantasy/Remixes/Majestic Mix/CD 2
(ltp1596
atp1597
atp1598
a(VThe Black Mages
VVideo Game OST/Square Enix/Final Fantasy/The Black Mages
(lp1599
(VBlack Mages
VVideo Game OST/Square Enix/Final Fantasy/The Black Mages/Black Mages
(ltp1600
a(VBlack Mages II - The Skies Above
VVideo Game OST/Square Enix/Final Fantasy/The Black Mages/Black Mages II - The Skies Above
(ltp1601
a(VBlack Mages III - Starlight and Darkness
VVideo Game OST/Square Enix/Final Fantasy/The Black Mages/Black Mages III - Starlight and Darkness
(ltp1602
atp1603
atp1604
a(VKingdom Hearts
VVideo Game OST/Square Enix/Kingdom Hearts
(lp1605
(VKingdom Hearts
VVideo Game OST/Square Enix/Kingdom Hearts/Kingdom Hearts
(lp1606
(VCD 1
VVideo Game OST/Square Enix/Kingdom Hearts/Kingdom Hearts/CD 1
(ltp1607
a(VCD 2
VVideo Game OST/Square Enix/Kingdom Hearts/Kingdom Hearts/CD 2
(ltp1608
atp1609
a(VKingdom Hearts 2
VVideo Game OST/Square Enix/Kingdom Hearts/Kingdom Hearts 2
(ltp1610
atp1611
atp1612
a(VTeam Ico
VVideo Game OST/Team Ico
(lp1613
(VShadow of the Colossus
VVideo Game OST/Team Ico/Shadow of the Colossus
(ltp1614
atp1615
a(VTelltale Games
VVideo Game OST/Telltale Games
(lp1616
(VSam and Max
VVideo Game OST/Telltale Games/Sam and Max
(lp1617
(VCommon Themes
VVideo Game OST/Telltale Games/Sam and Max/Common Themes
(ltp1618
a(VSeason 1
VVideo Game OST/Telltale Games/Sam and Max/Season 1
(lp1619
(VEpisode 1
VVideo Game OST/Telltale Games/Sam and Max/Season 1/Episode 1
(lp1620
(VCutscenes
VVideo Game OST/Telltale Games/Sam and Max/Season 1/Episode 1/Cutscenes
(ltp1621
a(VMusic
VVideo Game OST/Telltale Games/Sam and Max/Season 1/Episode 1/Music
(ltp1622
atp1623
a(VEpisode 2
VVideo Game OST/Telltale Games/Sam and Max/Season 1/Episode 2
(lp1624
(VCutscenes
VVideo Game OST/Telltale Games/Sam and Max/Season 1/Episode 2/Cutscenes
(ltp1625
a(VMusic
VVideo Game OST/Telltale Games/Sam and Max/Season 1/Episode 2/Music
(ltp1626
atp1627
a(VEpisode 3
VVideo Game OST/Telltale Games/Sam and Max/Season 1/Episode 3
(lp1628
(VCutscene
VVideo Game OST/Telltale Games/Sam and Max/Season 1/Episode 3/Cutscene
(ltp1629
a(VMusic
VVideo Game OST/Telltale Games/Sam and Max/Season 1/Episode 3/Music
(ltp1630
atp1631
a(VEpisode 4
VVideo Game OST/Telltale Games/Sam and Max/Season 1/Episode 4
(lp1632
(VCutscene
VVideo Game OST/Telltale Games/Sam and Max/Season 1/Episode 4/Cutscene
(ltp1633
a(VMusic
VVideo Game OST/Telltale Games/Sam and Max/Season 1/Episode 4/Music
(ltp1634
atp1635
a(VEpisode 5
VVideo Game OST/Telltale Games/Sam and Max/Season 1/Episode 5
(lp1636
(VCutscene
VVideo Game OST/Telltale Games/Sam and Max/Season 1/Episode 5/Cutscene
(ltp1637
a(VMusic
VVideo Game OST/Telltale Games/Sam and Max/Season 1/Episode 5/Music
(ltp1638
atp1639
a(VEpisode 6
VVideo Game OST/Telltale Games/Sam and Max/Season 1/Episode 6
(lp1640
(VMusic
VVideo Game OST/Telltale Games/Sam and Max/Season 1/Episode 6/Music
(ltp1641
atp1642
atp1643
atp1644
atp1645
a(VValvE
VVideo Game OST/ValvE
(lp1646
(VHalf-Life
VVideo Game OST/ValvE/Half-Life
(ltp1647
a(VHalf-Life 2
VVideo Game OST/ValvE/Half-Life 2
(ltp1648
a(VHalf-Life 2 Episode 1 & 2
VVideo Game OST/ValvE/Half-Life 2 Episode 1 & 2
(ltp1649
a(VPortal
VVideo Game OST/ValvE/Portal
(ltp1650
a(VTeam Fortress 2
VVideo Game OST/ValvE/Team Fortress 2
(ltp1651
atp1652
a(VVirgin Interactive
VVideo Game OST/Virgin Interactive
(lp1653
(VCool Spot
VVideo Game OST/Virgin Interactive/Cool Spot
(lp1654
(VAmiga
VVideo Game OST/Virgin Interactive/Cool Spot/Amiga
(ltp1655
a(VGenesis
VVideo Game OST/Virgin Interactive/Cool Spot/Genesis
(ltp1656
a(VSNES
VVideo Game OST/Virgin Interactive/Cool Spot/SNES
(ltp1657
atp1658
atp1659
atp1660
a(VWarren Zevon
VWarren Zevon
(lp1661
(VGreatest Hits
VWarren Zevon/Greatest Hits
(ltp1662
atp1663
a(VWeezer
VWeezer
(lp1664
(V[1994] Blue
VWeezer/[1994] Blue
(ltp1665
a(V[1996] Pinkerton
VWeezer/[1996] Pinkerton
(ltp1666
a(V[2000] Christmas CD
VWeezer/[2000] Christmas CD
(ltp1667
a(V[2001] Green
VWeezer/[2001] Green
(ltp1668
a(V[2002] Maladroit
VWeezer/[2002] Maladroit
(ltp1669
a(V[2005] Make Believe
VWeezer/[2005] Make Believe
(ltp1670
a(V[2008] Red
VWeezer/[2008] Red
(ltp1671
atp1672
a(VWeird Al
VWeird Al
(lp1673
(VMiscellaneous
VWeird Al/Miscellaneous
(ltp1674
a(V[1983] 'Weird Al' Yankovic
VWeird Al/[1983] 'Weird Al' Yankovic
(ltp1675
a(V[1984] In 3D
VWeird Al/[1984] In 3D
(ltp1676
a(V[1985] Dare To Be Stupid
VWeird Al/[1985] Dare To Be Stupid
(ltp1677
a(V[1986] Polka Party!
VWeird Al/[1986] Polka Party!
(ltp1678
a(V[1988] Even Worse
VWeird Al/[1988] Even Worse
(ltp1679
a(V[1989] UHF
VWeird Al/[1989] UHF
(ltp1680
a(V[1992] Off The Deep End
VWeird Al/[1992] Off The Deep End
(ltp1681
a(V[1993] Alapalooza
VWeird Al/[1993] Alapalooza
(ltp1682
a(V[1996] Bad Hair Day
VWeird Al/[1996] Bad Hair Day
(ltp1683
a(V[1999] Running With Scissors
VWeird Al/[1999] Running With Scissors
(ltp1684
a(V[2003] Poodle Hat
VWeird Al/[2003] Poodle Hat
(ltp1685
a(V[2006] Straight Outta Lynwood
VWeird Al/[2006] Straight Outta Lynwood
(ltp1686
atp1687
a(VYeah Yeah Yeahs
VYeah Yeah Yeahs
(lp1688
(VMiscellaneous
VYeah Yeah Yeahs/Miscellaneous
(ltp1689
a(V[2001] Yeah Yeah Yeahs (EP)
VYeah Yeah Yeahs/[2001] Yeah Yeah Yeahs (EP)
(ltp1690
a(V[2002] Machine (EP)
VYeah Yeah Yeahs/[2002] Machine (EP)
(ltp1691
a(V[2003] Fever To Tell
VYeah Yeah Yeahs/[2003] Fever To Tell
(ltp1692
a(V[2004] Maps (EP)
VYeah Yeah Yeahs/[2004] Maps (EP)
(ltp1693
a(V[2006] KO at Home
VYeah Yeah Yeahs/[2006] KO at Home
(ltp1694
a(V[2006] Show Your Bones
VYeah Yeah Yeahs/[2006] Show Your Bones
(ltp1695
a(V[2007] Is Is (EP)
VYeah Yeah Yeahs/[2007] Is Is (EP)
(ltp1696
a(V[2009] It's Blitaz
VYeah Yeah Yeahs/[2009] It's Blitaz
(ltp1697
a(V[2009] It's Blitz
VYeah Yeah Yeahs/[2009] It's Blitz
(ltp1698
atp1699
a(VYes
VYes
(lp1700
(VGreatest Hits
VYes/Greatest Hits
(lp1701
(VCD 1
VYes/Greatest Hits/CD 1
(ltp1702
a(VCD 2
VYes/Greatest Hits/CD 2
(ltp1703
atp1704
atp1705
atp1706
s.